;--------------------------------------------------------
; File Created by SDCC : free open source ANSI-C Compiler
; Version 4.1.6 #12439 (Mac OS X x86_64)
;--------------------------------------------------------
	.module main
	.optsdcc -mgbz80
	
;--------------------------------------------------------
; Public variables in this module
;--------------------------------------------------------
	.globl _main
	.globl _set_sprite_data
	.globl _delay
	.globl _car_light
;--------------------------------------------------------
; special function registers
;--------------------------------------------------------
;--------------------------------------------------------
; ram data
;--------------------------------------------------------
	.area _DATA
;--------------------------------------------------------
; ram data
;--------------------------------------------------------
	.area _INITIALIZED
;--------------------------------------------------------
; absolute external ram data
;--------------------------------------------------------
	.area _DABS (ABS)
;--------------------------------------------------------
; global & static initialisations
;--------------------------------------------------------
	.area _HOME
	.area _GSINIT
	.area _GSFINAL
	.area _GSINIT
;--------------------------------------------------------
; Home
;--------------------------------------------------------
	.area _HOME
	.area _HOME
;--------------------------------------------------------
; code
;--------------------------------------------------------
	.area _CODE
;main.c:5: void main(){
;	---------------------------------
; Function main
; ---------------------------------
_main::
;main.c:6: UINT8 currentspriteindex = 0;
	ld	c, #0x00
;main.c:8: set_sprite_data(0, 2, car_light);
	ld	de, #_car_light
	push	de
	ld	hl, #0x200
	push	hl
	call	_set_sprite_data
	add	sp, #4
;../../gbdk/include/gb/gb.h:1174: shadow_OAM[nb].tile=tile;
	ld	hl, #(_shadow_OAM + 2)
	ld	(hl), #0x00
;../../gbdk/include/gb/gb.h:1247: OAM_item_t * itm = &shadow_OAM[nb];
	ld	hl, #_shadow_OAM
;../../gbdk/include/gb/gb.h:1248: itm->y=y, itm->x=x;
	ld	a, #0x4e
	ld	(hl+), a
	ld	(hl), #0x58
;main.c:11: SHOW_SPRITES;
	ldh	a, (_LCDC_REG + 0)
	or	a, #0x02
	ldh	(_LCDC_REG + 0), a
;main.c:13: while(1){
00105$:
;main.c:14: if(currentspriteindex==0){
	ld	a, c
	or	a, a
;main.c:15: currentspriteindex = 1;
;main.c:18: currentspriteindex = 0;
	ld	c, #0x01
	jr	Z, 00103$
	ld	c, #0x00
00103$:
;../../gbdk/include/gb/gb.h:1174: shadow_OAM[nb].tile=tile;
	ld	hl, #(_shadow_OAM + 2)
	ld	(hl), c
;main.c:21: delay(1000);
	push	bc
	ld	de, #0x03e8
	push	de
	call	_delay
	pop	hl
	pop	bc
;../../gbdk/include/gb/gb.h:1263: OAM_item_t * itm = &shadow_OAM[nb];
	ld	de, #_shadow_OAM+0
;../../gbdk/include/gb/gb.h:1264: itm->y+=y, itm->x+=x;
	ld	a, (de)
	ld	(de), a
	inc	de
	ld	a, (de)
	add	a, #0x0a
	ld	(de), a
;main.c:22: scroll_sprite(0,10,0);
;main.c:24: }
	jr	00105$
_car_light:
	.db #0x0f	; 15
	.db #0x0f	; 15
	.db #0x08	; 8
	.db #0x0f	; 15
	.db #0x13	; 19
	.db #0x1c	; 28
	.db #0x1b	; 27
	.db #0x14	; 20
	.db #0x1f	; 31
	.db #0x10	; 16
	.db #0x1d	; 29
	.db #0x12	; 18
	.db #0x14	; 20
	.db #0x1b	; 27
	.db #0x17	; 23
	.db #0x1f	; 31
	.db #0x0f	; 15
	.db #0x0f	; 15
	.db #0x0b	; 11
	.db #0x0f	; 15
	.db #0x0f	; 15
	.db #0x08	; 8
	.db #0x17	; 23
	.db #0x18	; 24
	.db #0x17	; 23
	.db #0x18	; 24
	.db #0x1f	; 31
	.db #0x17	; 23
	.db #0x08	; 8
	.db #0x0f	; 15
	.db #0x0f	; 15
	.db #0x0f	; 15
	.db #0xf0	; 240
	.db #0xf0	; 240
	.db #0x10	; 16
	.db #0xf0	; 240
	.db #0xc8	; 200
	.db #0x38	; 56	'8'
	.db #0xd8	; 216
	.db #0x28	; 40
	.db #0xf8	; 248
	.db #0x08	; 8
	.db #0xb8	; 184
	.db #0x48	; 72	'H'
	.db #0x28	; 40
	.db #0xd8	; 216
	.db #0xe8	; 232
	.db #0xf8	; 248
	.db #0xf0	; 240
	.db #0xf0	; 240
	.db #0xd0	; 208
	.db #0xf0	; 240
	.db #0xf0	; 240
	.db #0x10	; 16
	.db #0xe8	; 232
	.db #0x18	; 24
	.db #0xe8	; 232
	.db #0x18	; 24
	.db #0xf8	; 248
	.db #0xe8	; 232
	.db #0x10	; 16
	.db #0xf0	; 240
	.db #0xf0	; 240
	.db #0xf0	; 240
	.area _CODE
	.area _INITIALIZER
	.area _CABS (ABS)
