;--------------------------------------------------------
; File Created by SDCC : free open source ANSI-C Compiler
; Version 4.1.6 #12439 (MINGW32)
;--------------------------------------------------------
	.module main
	.optsdcc -mgbz80
	
;--------------------------------------------------------
; Public variables in this module
;--------------------------------------------------------
	.globl _main
	.globl _setupcar_light
	.globl _performantdelay
	.globl _movegamecharacter
	.globl _load_car_sprite
	.globl _set_sprite_data
	.globl _set_bkg_tiles
	.globl _set_bkg_data
	.globl _wait_vbl_done
	.globl _joypad
	.globl _spritesize
	.globl _car1
	.globl _TileLabel
	.globl _map
	.globl _car_light
;--------------------------------------------------------
; special function registers
;--------------------------------------------------------
;--------------------------------------------------------
; ram data
;--------------------------------------------------------
	.area _DATA
_car1::
	.ds 9
;--------------------------------------------------------
; ram data
;--------------------------------------------------------
	.area _INITIALIZED
_spritesize::
	.ds 1
;--------------------------------------------------------
; absolute external ram data
;--------------------------------------------------------
	.area _DABS (ABS)
;--------------------------------------------------------
; global & static initialisations
;--------------------------------------------------------
	.area _HOME
	.area _GSINIT
	.area _GSFINAL
	.area _GSINIT
;--------------------------------------------------------
; Home
;--------------------------------------------------------
	.area _HOME
	.area _HOME
;--------------------------------------------------------
; code
;--------------------------------------------------------
	.area _CODE
;main.c:19: void load_car_sprite(UINT8 direction) {
;	---------------------------------
; Function load_car_sprite
; ---------------------------------
_load_car_sprite::
;main.c:20: set_sprite_tile(0, 4 * direction);
	ldhl	sp,	#2
	ld	c, (hl)
	ld	a, c
	add	a, a
	add	a, a
	ld	b, a
;C:/Users/campb/Documents/gbdk/include/gb/gb.h:1174: shadow_OAM[nb].tile=tile;
	ld	hl, #(_shadow_OAM + 2)
	ld	(hl), b
;main.c:21: car1.spriteids[0] = 0;
	ld	hl, #(_car1 + 1)
	ld	(hl), #0x00
;main.c:22: set_sprite_tile(1, 4 * direction + 2);
	ld	a, c
	add	a, a
	add	a, a
	ld	c, a
	ld	b, c
	inc	b
	inc	b
;C:/Users/campb/Documents/gbdk/include/gb/gb.h:1174: shadow_OAM[nb].tile=tile;
	ld	hl, #(_shadow_OAM + 6)
	ld	(hl), b
;main.c:23: car1.spriteids[1] = 1;
	ld	hl, #(_car1 + 2)
	ld	(hl), #0x01
;main.c:24: set_sprite_tile(2, 4 * direction + 1);
	ld	b, c
	inc	b
;C:/Users/campb/Documents/gbdk/include/gb/gb.h:1174: shadow_OAM[nb].tile=tile;
	ld	hl, #(_shadow_OAM + 10)
	ld	(hl), b
;main.c:25: car1.spriteids[2] = 2;
	ld	hl, #(_car1 + 3)
	ld	(hl), #0x02
;main.c:26: set_sprite_tile(3, 4 * direction + 3);
	inc	c
	inc	c
	inc	c
;C:/Users/campb/Documents/gbdk/include/gb/gb.h:1174: shadow_OAM[nb].tile=tile;
	ld	hl, #(_shadow_OAM + 14)
	ld	(hl), c
;main.c:27: car1.spriteids[3] = 3;
	ld	hl, #(_car1 + 4)
	ld	(hl), #0x03
;main.c:28: }
	ret
_car_light:
	.db #0x0f	; 15
	.db #0x0f	; 15
	.db #0x08	; 8
	.db #0x0f	; 15
	.db #0x13	; 19
	.db #0x1c	; 28
	.db #0x1b	; 27
	.db #0x14	; 20
	.db #0x1f	; 31
	.db #0x10	; 16
	.db #0x1d	; 29
	.db #0x12	; 18
	.db #0x14	; 20
	.db #0x1b	; 27
	.db #0x17	; 23
	.db #0x1f	; 31
	.db #0x0f	; 15
	.db #0x0f	; 15
	.db #0x0b	; 11
	.db #0x0f	; 15
	.db #0x0f	; 15
	.db #0x08	; 8
	.db #0x17	; 23
	.db #0x18	; 24
	.db #0x17	; 23
	.db #0x18	; 24
	.db #0x1f	; 31
	.db #0x17	; 23
	.db #0x08	; 8
	.db #0x0f	; 15
	.db #0x0f	; 15
	.db #0x0f	; 15
	.db #0xf0	; 240
	.db #0xf0	; 240
	.db #0x10	; 16
	.db #0xf0	; 240
	.db #0xc8	; 200
	.db #0x38	; 56	'8'
	.db #0xd8	; 216
	.db #0x28	; 40
	.db #0xf8	; 248
	.db #0x08	; 8
	.db #0xb8	; 184
	.db #0x48	; 72	'H'
	.db #0x28	; 40
	.db #0xd8	; 216
	.db #0xe8	; 232
	.db #0xf8	; 248
	.db #0xf0	; 240
	.db #0xf0	; 240
	.db #0xd0	; 208
	.db #0xf0	; 240
	.db #0xf0	; 240
	.db #0x10	; 16
	.db #0xe8	; 232
	.db #0x18	; 24
	.db #0xe8	; 232
	.db #0x18	; 24
	.db #0xf8	; 248
	.db #0xe8	; 232
	.db #0x10	; 16
	.db #0xf0	; 240
	.db #0xf0	; 240
	.db #0xf0	; 240
_map:
	.db #0xff	; 255
	.db #0xfa	; 250
	.db #0x75	; 117	'u'
	.db #0x55	; 85	'U'
	.db #0x55	; 85	'U'
	.db #0x55	; 85	'U'
	.db #0xdc	; 220
	.db #0x44	; 68	'D'
	.db #0x44	; 68	'D'
	.db #0x44	; 68	'D'
	.db #0x43	; 67	'C'
	.db #0x6f	; 111	'o'
	.db #0xff	; 255
	.db #0xff	; 255
	.db #0xa8	; 168
	.db #0x11	; 17
	.db #0x11	; 17
	.db #0x11	; 17
	.db #0x11	; 17
	.db #0x98	; 152
	.db #0x00	; 0
	.db #0x00	; 0
	.db #0x00	; 0
	.db #0x00	; 0
	.db #0x46	; 70	'F'
	.db #0xff	; 255
	.db #0xfa	; 250
	.db #0x81	; 129
	.db #0x11	; 17
	.db #0x11	; 17
	.db #0x11	; 17
	.db #0x11	; 17
	.db #0x98	; 152
	.db #0x00	; 0
	.db #0x00	; 0
	.db #0x00	; 0
	.db #0x00	; 0
	.db #0x04	; 4
	.db #0x6f	; 111	'o'
	.db #0xf9	; 249
	.db #0x11	; 17
	.db #0x11	; 17
	.db #0x11	; 17
	.db #0x11	; 17
	.db #0x11	; 17
	.db #0x98	; 152
	.db #0x00	; 0
	.db #0x00	; 0
	.db #0x00	; 0
	.db #0x00	; 0
	.db #0x00	; 0
	.db #0x5f	; 95
	.db #0xfe	; 254
	.db #0x11	; 17
	.db #0x11	; 17
	.db #0x11	; 17
	.db #0x11	; 17
	.db #0x11	; 17
	.db #0x98	; 152
	.db #0x00	; 0
	.db #0x00	; 0
	.db #0x00	; 0
	.db #0x00	; 0
	.db #0x00	; 0
	.db #0x6f	; 111	'o'
	.db #0xfe	; 254
	.db #0x11	; 17
	.db #0x11	; 17
	.db #0x11	; 17
	.db #0x11	; 17
	.db #0x11	; 17
	.db #0x98	; 152
	.db #0x00	; 0
	.db #0x00	; 0
	.db #0x00	; 0
	.db #0x00	; 0
	.db #0x00	; 0
	.db #0x6f	; 111	'o'
	.db #0x40	; 64
	.db #0x11	; 17
	.db #0x11	; 17
	.db #0x11	; 17
	.db #0x11	; 17
	.db #0x11	; 17
	.db #0x98	; 152
	.db #0x00	; 0
	.db #0x00	; 0
	.db #0x00	; 0
	.db #0x00	; 0
	.db #0x00	; 0
	.db #0x6a	; 106	'j'
	.db #0x31	; 49	'1'
	.db #0x11	; 17
	.db #0x11	; 17
	.db #0x11	; 17
	.db #0x11	; 17
	.db #0x11	; 17
	.db #0x98	; 152
	.db #0x00	; 0
	.db #0x00	; 0
	.db #0x00	; 0
	.db #0x00	; 0
	.db #0x00	; 0
	.db #0x79	; 121	'y'
	.db #0x31	; 49	'1'
_TileLabel:
	.db #0xaa	; 170
	.db #0x00	; 0
	.db #0x55	; 85	'U'
	.db #0x00	; 0
	.db #0xaa	; 170
	.db #0x00	; 0
	.db #0x55	; 85	'U'
	.db #0x00	; 0
	.db #0xaa	; 170
	.db #0x00	; 0
	.db #0x55	; 85	'U'
	.db #0x00	; 0
	.db #0xaa	; 170
	.db #0x00	; 0
	.db #0x55	; 85	'U'
	.db #0x00	; 0
;main.c:30: void movegamecharacter(struct Car* car, UINT8 x, UINT8 y){
;	---------------------------------
; Function movegamecharacter
; ---------------------------------
_movegamecharacter::
	add	sp, #-3
;main.c:31: move_sprite(car->spriteids[0], x, y);
	ldhl	sp,	#8
	ld	a, (hl)
	ldhl	sp,	#0
	ld	(hl), a
	ldhl	sp,	#7
	ld	a, (hl)
	ldhl	sp,	#1
	ld	(hl), a
	ldhl	sp,	#5
	ld	a, (hl+)
	ld	e, a
	ld	d, (hl)
	ld	l, e
;	spillPairReg hl
;	spillPairReg hl
	ld	h, d
;	spillPairReg hl
;	spillPairReg hl
	inc	hl
;C:/Users/campb/Documents/gbdk/include/gb/gb.h:1247: OAM_item_t * itm = &shadow_OAM[nb];
	ld	l, (hl)
;	spillPairReg hl
;	spillPairReg hl
	ld	h, #0x00
;	spillPairReg hl
;	spillPairReg hl
	add	hl, hl
	add	hl, hl
	ld	bc, #_shadow_OAM
	add	hl, bc
	ld	c, l
	ld	b, h
;C:/Users/campb/Documents/gbdk/include/gb/gb.h:1248: itm->y=y, itm->x=x;
	ldhl	sp,	#0
	ld	a, (hl+)
	ld	(bc), a
	inc	bc
	ld	a, (hl)
	ld	(bc), a
;main.c:32: move_sprite(car->spriteids[1], x + spritesize, y);
	ld	a, (hl)
;setupPair	HL
	ld	hl, #_spritesize
	add	a, (hl)
	ld	l, e
;	spillPairReg hl
;	spillPairReg hl
	ld	h, d
;	spillPairReg hl
;	spillPairReg hl
	inc	hl
	inc	hl
	ld	c, (hl)
	ldhl	sp,	#2
	ld	(hl), a
;C:/Users/campb/Documents/gbdk/include/gb/gb.h:1247: OAM_item_t * itm = &shadow_OAM[nb];
	ld	l, c
;	spillPairReg hl
;	spillPairReg hl
	ld	h, #0x00
;	spillPairReg hl
;	spillPairReg hl
	add	hl, hl
	add	hl, hl
	ld	bc, #_shadow_OAM
	add	hl, bc
	ld	c, l
	ld	b, h
;C:/Users/campb/Documents/gbdk/include/gb/gb.h:1248: itm->y=y, itm->x=x;
	ldhl	sp,	#0
	ld	a, (hl+)
	inc	hl
	ld	(bc), a
	inc	bc
;main.c:33: move_sprite(car->spriteids[2], x, y + spritesize);
	ld	a, (hl-)
	dec	hl
	ld	(bc), a
	ld	a, (hl)
;setupPair	HL
	ld	hl, #_spritesize
	add	a, (hl)
	ld	c, a
	ld	l, e
;	spillPairReg hl
;	spillPairReg hl
	ld	h, d
;	spillPairReg hl
;	spillPairReg hl
	inc	hl
	inc	hl
	inc	hl
;C:/Users/campb/Documents/gbdk/include/gb/gb.h:1247: OAM_item_t * itm = &shadow_OAM[nb];
	ld	l, (hl)
;	spillPairReg hl
;	spillPairReg hl
	ld	h, #0x00
;	spillPairReg hl
;	spillPairReg hl
	add	hl, hl
	add	hl, hl
	push	de
	ld	de, #_shadow_OAM
	add	hl, de
	pop	de
;C:/Users/campb/Documents/gbdk/include/gb/gb.h:1248: itm->y=y, itm->x=x;
	ld	a, c
	ld	(hl+), a
	ld	c, l
	ld	b, h
	ldhl	sp,	#1
;main.c:34: move_sprite(car->spriteids[3], x + spritesize, y + spritesize);
	ld	a, (hl-)
	ld	(bc), a
	ld	a, (hl)
;setupPair	HL
	ld	hl, #_spritesize
	add	a, (hl)
	ld	b, a
	ldhl	sp,	#1
	ld	a, (hl)
;setupPair	HL
	ld	hl, #_spritesize
	add	a, (hl)
	ld	c, a
	ld	hl, #0x0004
	add	hl, de
;C:/Users/campb/Documents/gbdk/include/gb/gb.h:1247: OAM_item_t * itm = &shadow_OAM[nb];
	ld	l, (hl)
;	spillPairReg hl
;	spillPairReg hl
	ld	h, #0x00
;	spillPairReg hl
;	spillPairReg hl
	add	hl, hl
	add	hl, hl
	ld	de, #_shadow_OAM
	add	hl, de
;C:/Users/campb/Documents/gbdk/include/gb/gb.h:1248: itm->y=y, itm->x=x;
	ld	a, b
	ld	(hl+), a
	ld	(hl), c
;main.c:34: move_sprite(car->spriteids[3], x + spritesize, y + spritesize);
;main.c:35: }
	add	sp, #3
	ret
;main.c:37: void performantdelay(UINT8 numloops){
;	---------------------------------
; Function performantdelay
; ---------------------------------
_performantdelay::
;main.c:39: for(i = 0; i < numloops; i++){
	ld	c, #0x00
00103$:
	ld	a, c
	ldhl	sp,	#2
	sub	a, (hl)
	ret	NC
;main.c:40: wait_vbl_done();
	call	_wait_vbl_done
;main.c:39: for(i = 0; i < numloops; i++){
	inc	c
;main.c:42: }
	jr	00103$
;main.c:44: void setupcar_light(){
;	---------------------------------
; Function setupcar_light
; ---------------------------------
_setupcar_light::
;main.c:45: car1.direction = 0;
	ld	hl, #_car1
	ld	(hl), #0x00
;main.c:46: car1.x = 80;
	ld	hl, #(_car1 + 5)
	ld	(hl), #0x50
;main.c:47: car1.y = 130;
	ld	hl, #(_car1 + 6)
	ld	(hl), #0x82
;main.c:48: car1.width = 16;
	ld	hl, #(_car1 + 7)
	ld	(hl), #0x10
;main.c:49: car1.height = 16;
	ld	hl, #(_car1 + 8)
	ld	(hl), #0x10
;main.c:51: set_sprite_data(0, 8, car_light);
	ld	de, #_car_light
	push	de
	ld	hl, #0x800
	push	hl
	call	_set_sprite_data
	add	sp, #4
;main.c:52: load_car_sprite(car1.direction);
	ld	a, (#_car1 + 0)
	push	af
	inc	sp
	call	_load_car_sprite
	inc	sp
;main.c:65: movegamecharacter(&car1, car1.x, car1.y);
	ld	hl, #(_car1 + 6)
	ld	b, (hl)
	ld	a, (#(_car1 + 5) + 0)
	push	bc
	inc	sp
	push	af
	inc	sp
	ld	de, #_car1
	push	de
	call	_movegamecharacter
	add	sp, #4
;main.c:66: }
	ret
;main.c:68: void main(){
;	---------------------------------
; Function main
; ---------------------------------
_main::
;main.c:72: set_bkg_data(0, 3, map);
	ld	de, #_map
	push	de
	ld	hl, #0x300
	push	hl
	call	_set_bkg_data
	add	sp, #4
;main.c:73: set_bkg_tiles(0, 0, 40, 18, TileLabel);
	ld	de, #_TileLabel
	push	de
	ld	hl, #0x1228
	push	hl
	xor	a, a
	rrca
	push	af
	call	_set_bkg_tiles
	add	sp, #6
;main.c:74: SHOW_BKG;
	ldh	a, (_LCDC_REG + 0)
	or	a, #0x01
	ldh	(_LCDC_REG + 0), a
;main.c:76: set_sprite_data(0,4, car_light);
	ld	de, #_car_light
	push	de
	ld	hl, #0x400
	push	hl
	call	_set_sprite_data
	add	sp, #4
;main.c:77: setupcar_light();
	call	_setupcar_light
;main.c:78: SHOW_SPRITES;
	ldh	a, (_LCDC_REG + 0)
	or	a, #0x02
	ldh	(_LCDC_REG + 0), a
;main.c:79: DISPLAY_ON;
	ldh	a, (_LCDC_REG + 0)
	or	a, #0x80
	ldh	(_LCDC_REG + 0), a
;main.c:81: while(1){
00112$:
;main.c:82: if(joypad() & J_LEFT){
	call	_joypad
	bit	1, e
	jr	Z, 00105$
;main.c:83: if (car1.direction == 0) {
	ld	bc, #_car1+0
	ld	a, (bc)
	or	a, a
	jr	NZ, 00102$
;main.c:84: car1.direction = 15;
	ld	a, #0x0f
	ld	(bc), a
	jr	00103$
00102$:
;main.c:86: car1.direction -= 1;
	dec	a
	ld	(bc), a
00103$:
;main.c:88: load_car_sprite(car1.direction);
	ld	a, (bc)
	push	af
	inc	sp
	call	_load_car_sprite
	inc	sp
00105$:
;main.c:90: if(joypad() & J_RIGHT){
	call	_joypad
	ld	a, e
	rrca
	jr	NC, 00110$
;main.c:91: if (car1.direction == 15) {
	ld	bc, #_car1+0
	ld	a, (bc)
	cp	a, #0x0f
	jr	NZ, 00107$
;main.c:92: car1.direction = 0;
	xor	a, a
	ld	(bc), a
	jr	00108$
00107$:
;main.c:94: car1.direction += 1;
	inc	a
	ld	(bc), a
00108$:
;main.c:96: load_car_sprite(car1.direction);
	ld	a, (bc)
	push	af
	inc	sp
	call	_load_car_sprite
	inc	sp
00110$:
;main.c:98: performantdelay(5);    
	ld	a, #0x05
	push	af
	inc	sp
	call	_performantdelay
	inc	sp
;main.c:99: performantdelay(15);
	ld	a, #0x0f
	push	af
	inc	sp
	call	_performantdelay
	inc	sp
;main.c:101: }
	jr	00112$
	.area _CODE
	.area _INITIALIZER
__xinit__spritesize:
	.db #0x08	; 8
	.area _CABS (ABS)
