;--------------------------------------------------------
; File Created by SDCC : free open source ANSI-C Compiler
; Version 4.1.6 #12439 (MINGW32)
;--------------------------------------------------------
	.module main
	.optsdcc -mgbz80
	
;--------------------------------------------------------
; Public variables in this module
;--------------------------------------------------------
	.globl _main
	.globl _hit_ball
	.globl _reset_car
	.globl _move_ball
	.globl _move_car
	.globl _setupcar_dark
	.globl _setupcar_light
	.globl _setup_ball
	.globl _performantdelay
	.globl _load_ai_sprite
	.globl _load_car_sprite
	.globl _is_barrier
	.globl _is_goal
	.globl _check_collision
	.globl _load_ball_sprite
	.globl _abs
	.globl _puts
	.globl _printf
	.globl _set_sprite_data
	.globl _set_bkg_tiles
	.globl _set_bkg_data
	.globl _wait_vbl_done
	.globl _joypad
	.globl _spritesize
	.globl _max_vel
	.globl _windowmap
	.globl _enemy_goal_square
	.globl _player_goal_square
	.globl _barriers
	.globl _enemy_goals
	.globl _player_goals
	.globl _goal_size
	.globl _barrier_size
	.globl _ball
	.globl _car2
	.globl _car1
	.globl _bkg_tiles
	.globl _ball_sprite
	.globl _map
	.globl _car_dark
	.globl _car_light
	.globl _movegamecharacter
;--------------------------------------------------------
; special function registers
;--------------------------------------------------------
;--------------------------------------------------------
; ram data
;--------------------------------------------------------
	.area _DATA
_car1::
	.ds 14
_car2::
	.ds 14
_ball::
	.ds 14
;--------------------------------------------------------
; ram data
;--------------------------------------------------------
	.area _INITIALIZED
_barrier_size::
	.ds 2
_goal_size::
	.ds 2
_player_goals::
	.ds 2
_enemy_goals::
	.ds 2
_barriers::
	.ds 4
_player_goal_square::
	.ds 6
_enemy_goal_square::
	.ds 6
_windowmap::
	.ds 5
_max_vel::
	.ds 1
_spritesize::
	.ds 1
;--------------------------------------------------------
; absolute external ram data
;--------------------------------------------------------
	.area _DABS (ABS)
;--------------------------------------------------------
; global & static initialisations
;--------------------------------------------------------
	.area _HOME
	.area _GSINIT
	.area _GSFINAL
	.area _GSINIT
;--------------------------------------------------------
; Home
;--------------------------------------------------------
	.area _HOME
	.area _HOME
;--------------------------------------------------------
; code
;--------------------------------------------------------
	.area _CODE
;main.c:52: void load_ball_sprite() {
;	---------------------------------
; Function load_ball_sprite
; ---------------------------------
_load_ball_sprite::
;C:/Users/campb/Documents/gbdk/include/gb/gb.h:1174: shadow_OAM[nb].tile=tile;
	ld	hl, #(_shadow_OAM + 18)
	ld	(hl), #0x40
;main.c:54: ball.spriteids[0] = 4;
	ld	hl, #(_ball + 1)
	ld	(hl), #0x04
;C:/Users/campb/Documents/gbdk/include/gb/gb.h:1174: shadow_OAM[nb].tile=tile;
	ld	hl, #(_shadow_OAM + 22)
	ld	(hl), #0x41
;main.c:56: ball.spriteids[1] = 6;
	ld	hl, #(_ball + 2)
	ld	(hl), #0x06
;C:/Users/campb/Documents/gbdk/include/gb/gb.h:1174: shadow_OAM[nb].tile=tile;
	ld	hl, #(_shadow_OAM + 26)
	ld	(hl), #0x42
;main.c:58: ball.spriteids[2] = 5;
	ld	hl, #(_ball + 3)
	ld	(hl), #0x05
;C:/Users/campb/Documents/gbdk/include/gb/gb.h:1174: shadow_OAM[nb].tile=tile;
	ld	hl, #(_shadow_OAM + 30)
	ld	(hl), #0x43
;main.c:60: ball.spriteids[3] = 7;
	ld	hl, #(_ball + 4)
	ld	(hl), #0x07
;main.c:61: }
	ret
_car_light:
	.db #0x0f	; 15
	.db #0x0f	; 15
	.db #0x08	; 8
	.db #0x0f	; 15
	.db #0x13	; 19
	.db #0x1c	; 28
	.db #0x1b	; 27
	.db #0x14	; 20
	.db #0x1f	; 31
	.db #0x10	; 16
	.db #0x1d	; 29
	.db #0x12	; 18
	.db #0x14	; 20
	.db #0x1b	; 27
	.db #0x17	; 23
	.db #0x1f	; 31
	.db #0x0f	; 15
	.db #0x0f	; 15
	.db #0x0b	; 11
	.db #0x0f	; 15
	.db #0x0f	; 15
	.db #0x08	; 8
	.db #0x17	; 23
	.db #0x18	; 24
	.db #0x17	; 23
	.db #0x18	; 24
	.db #0x1f	; 31
	.db #0x17	; 23
	.db #0x08	; 8
	.db #0x0f	; 15
	.db #0x0f	; 15
	.db #0x0f	; 15
	.db #0xf0	; 240
	.db #0xf0	; 240
	.db #0x10	; 16
	.db #0xf0	; 240
	.db #0xc8	; 200
	.db #0x38	; 56	'8'
	.db #0xd8	; 216
	.db #0x28	; 40
	.db #0xf8	; 248
	.db #0x08	; 8
	.db #0xb8	; 184
	.db #0x48	; 72	'H'
	.db #0x28	; 40
	.db #0xd8	; 216
	.db #0xe8	; 232
	.db #0xf8	; 248
	.db #0xf0	; 240
	.db #0xf0	; 240
	.db #0xd0	; 208
	.db #0xf0	; 240
	.db #0xf0	; 240
	.db #0x10	; 16
	.db #0xe8	; 232
	.db #0x18	; 24
	.db #0xe8	; 232
	.db #0x18	; 24
	.db #0xf8	; 248
	.db #0xe8	; 232
	.db #0x10	; 16
	.db #0xf0	; 240
	.db #0xf0	; 240
	.db #0xf0	; 240
	.db #0x01	; 1
	.db #0x01	; 1
	.db #0x02	; 2
	.db #0x03	; 3
	.db #0x06	; 6
	.db #0x05	; 5
	.db #0x07	; 7
	.db #0x04	; 4
	.db #0x0a	; 10
	.db #0x0d	; 13
	.db #0x0a	; 10
	.db #0x0f	; 15
	.db #0x0f	; 15
	.db #0x0f	; 15
	.db #0x17	; 23
	.db #0x1f	; 31
	.db #0x17	; 23
	.db #0x19	; 25
	.db #0x2f	; 47
	.db #0x30	; 48	'0'
	.db #0x4f	; 79	'O'
	.db #0x70	; 112	'p'
	.db #0x7f	; 127
	.db #0x5c	; 92
	.db #0x67	; 103	'g'
	.db #0x7f	; 127
	.db #0x19	; 25
	.db #0x1f	; 31
	.db #0x06	; 6
	.db #0x07	; 7
	.db #0x01	; 1
	.db #0x01	; 1
	.db #0xc0	; 192
	.db #0xc0	; 192
	.db #0x30	; 48	'0'
	.db #0xf0	; 240
	.db #0xcc	; 204
	.db #0x3c	; 60
	.db #0xf2	; 242
	.db #0x0e	; 14
	.db #0xf2	; 242
	.db #0x0e	; 14
	.db #0x6c	; 108	'l'
	.db #0x94	; 148
	.db #0x9c	; 156
	.db #0xe4	; 228
	.db #0xf4	; 244
	.db #0xec	; 236
	.db #0xf8	; 248
	.db #0xf8	; 248
	.db #0xf0	; 240
	.db #0x70	; 112	'p'
	.db #0xd0	; 208
	.db #0x30	; 48	'0'
	.db #0xa0	; 160
	.db #0x60	; 96
	.db #0xa0	; 160
	.db #0x60	; 96
	.db #0xa0	; 160
	.db #0xe0	; 224
	.db #0xc0	; 192
	.db #0x40	; 64
	.db #0x80	; 128
	.db #0x80	; 128
	.db #0x00	; 0
	.db #0x00	; 0
	.db #0x00	; 0
	.db #0x00	; 0
	.db #0x01	; 1
	.db #0x01	; 1
	.db #0x02	; 2
	.db #0x03	; 3
	.db #0x05	; 5
	.db #0x06	; 6
	.db #0x06	; 6
	.db #0x07	; 7
	.db #0x0b	; 11
	.db #0x0f	; 15
	.db #0x17	; 23
	.db #0x1b	; 27
	.db #0x6f	; 111	'o'
	.db #0x71	; 113	'q'
	.db #0x9f	; 159
	.db #0xe0	; 224
	.db #0xff	; 255
	.db #0xb0	; 176
	.db #0x9f	; 159
	.db #0xf8	; 248
	.db #0x4e	; 78	'N'
	.db #0x7d	; 125
	.db #0x25	; 37
	.db #0x3f	; 63
	.db #0x15	; 21
	.db #0x1b	; 27
	.db #0x0e	; 14
	.db #0x0e	; 14
	.db #0x20	; 32
	.db #0x20	; 32
	.db #0xd0	; 208
	.db #0xf0	; 240
	.db #0x28	; 40
	.db #0xd8	; 216
	.db #0xb4	; 180
	.db #0x4c	; 76	'L'
	.db #0xfa	; 250
	.db #0x06	; 6
	.db #0x7d	; 125
	.db #0x83	; 131
	.db #0x72	; 114	'r'
	.db #0x8e	; 142
	.db #0x9a	; 154
	.db #0xe6	; 230
	.db #0xd4	; 212
	.db #0xec	; 236
	.db #0xe8	; 232
	.db #0xf8	; 248
	.db #0xb0	; 176
	.db #0x70	; 112	'p'
	.db #0x40	; 64
	.db #0xc0	; 192
	.db #0x80	; 128
	.db #0x80	; 128
	.db #0x00	; 0
	.db #0x00	; 0
	.db #0x00	; 0
	.db #0x00	; 0
	.db #0x00	; 0
	.db #0x00	; 0
	.db #0x00	; 0
	.db #0x00	; 0
	.db #0x00	; 0
	.db #0x00	; 0
	.db #0x00	; 0
	.db #0x00	; 0
	.db #0x01	; 1
	.db #0x01	; 1
	.db #0x07	; 7
	.db #0x07	; 7
	.db #0x3b	; 59
	.db #0x3f	; 63
	.db #0x47	; 71	'G'
	.db #0x7b	; 123
	.db #0xff	; 255
	.db #0xa1	; 161
	.db #0xbf	; 191
	.db #0xf1	; 241
	.db #0x5f	; 95
	.db #0x70	; 112	'p'
	.db #0x5f	; 95
	.db #0x78	; 120	'x'
	.db #0x2e	; 46
	.db #0x39	; 57	'9'
	.db #0x29	; 41
	.db #0x3f	; 63
	.db #0x1a	; 26
	.db #0x16	; 22
	.db #0x1c	; 28
	.db #0x1c	; 28
	.db #0x00	; 0
	.db #0x00	; 0
	.db #0x00	; 0
	.db #0x00	; 0
	.db #0x18	; 24
	.db #0x18	; 24
	.db #0xe4	; 228
	.db #0xfc	; 252
	.db #0x64	; 100	'd'
	.db #0x9c	; 156
	.db #0xda	; 218
	.db #0x26	; 38
	.db #0xba	; 186
	.db #0xc6	; 198
	.db #0xbd	; 189
	.db #0xc3	; 195
	.db #0xdd	; 221
	.db #0xe3	; 227
	.db #0xc9	; 201
	.db #0xf7	; 247
	.db #0xfe	; 254
	.db #0xe2	; 226
	.db #0xcc	; 204
	.db #0xfc	; 252
	.db #0x70	; 112	'p'
	.db #0xf0	; 240
	.db #0x80	; 128
	.db #0x80	; 128
	.db #0x00	; 0
	.db #0x00	; 0
	.db #0x00	; 0
	.db #0x00	; 0
	.db #0x00	; 0
	.db #0x00	; 0
	.db #0x00	; 0
	.db #0x00	; 0
	.db #0x00	; 0
	.db #0x00	; 0
	.db #0x00	; 0
	.db #0x00	; 0
	.db #0x38	; 56	'8'
	.db #0x38	; 56	'8'
	.db #0xe7	; 231
	.db #0xdf	; 223
	.db #0xbd	; 189
	.db #0xe3	; 227
	.db #0xbf	; 191
	.db #0xe3	; 227
	.db #0xbf	; 191
	.db #0xe3	; 227
	.db #0xbf	; 191
	.db #0xe3	; 227
	.db #0xbf	; 191
	.db #0xe3	; 227
	.db #0xbd	; 189
	.db #0xe3	; 227
	.db #0xe7	; 231
	.db #0xdf	; 223
	.db #0x38	; 56	'8'
	.db #0x38	; 56	'8'
	.db #0x00	; 0
	.db #0x00	; 0
	.db #0x00	; 0
	.db #0x00	; 0
	.db #0x00	; 0
	.db #0x00	; 0
	.db #0x00	; 0
	.db #0x00	; 0
	.db #0x00	; 0
	.db #0x00	; 0
	.db #0x00	; 0
	.db #0x00	; 0
	.db #0xfc	; 252
	.db #0xfc	; 252
	.db #0x3b	; 59
	.db #0xc7	; 199
	.db #0xf1	; 241
	.db #0x8f	; 143
	.db #0x9d	; 157
	.db #0xe3	; 227
	.db #0xbd	; 189
	.db #0xc3	; 195
	.db #0xbd	; 189
	.db #0xc3	; 195
	.db #0x9d	; 157
	.db #0xe3	; 227
	.db #0xf1	; 241
	.db #0x8f	; 143
	.db #0x3b	; 59
	.db #0xc7	; 199
	.db #0xfc	; 252
	.db #0xfc	; 252
	.db #0x00	; 0
	.db #0x00	; 0
	.db #0x00	; 0
	.db #0x00	; 0
	.db #0x00	; 0
	.db #0x00	; 0
	.db #0x00	; 0
	.db #0x00	; 0
	.db #0x1c	; 28
	.db #0x1c	; 28
	.db #0x1a	; 26
	.db #0x16	; 22
	.db #0x29	; 41
	.db #0x3f	; 63
	.db #0x2e	; 46
	.db #0x39	; 57	'9'
	.db #0x5f	; 95
	.db #0x78	; 120	'x'
	.db #0x5f	; 95
	.db #0x70	; 112	'p'
	.db #0xbf	; 191
	.db #0xf1	; 241
	.db #0xff	; 255
	.db #0xa1	; 161
	.db #0x47	; 71	'G'
	.db #0x7b	; 123
	.db #0x3b	; 59
	.db #0x3f	; 63
	.db #0x07	; 7
	.db #0x07	; 7
	.db #0x01	; 1
	.db #0x01	; 1
	.db #0x00	; 0
	.db #0x00	; 0
	.db #0x00	; 0
	.db #0x00	; 0
	.db #0x00	; 0
	.db #0x00	; 0
	.db #0x00	; 0
	.db #0x00	; 0
	.db #0x00	; 0
	.db #0x00	; 0
	.db #0x00	; 0
	.db #0x00	; 0
	.db #0x80	; 128
	.db #0x80	; 128
	.db #0x70	; 112	'p'
	.db #0xf0	; 240
	.db #0xcc	; 204
	.db #0xfc	; 252
	.db #0xfe	; 254
	.db #0xe2	; 226
	.db #0xc9	; 201
	.db #0xf7	; 247
	.db #0xdd	; 221
	.db #0xe3	; 227
	.db #0xbd	; 189
	.db #0xc3	; 195
	.db #0xba	; 186
	.db #0xc6	; 198
	.db #0xda	; 218
	.db #0x26	; 38
	.db #0x64	; 100	'd'
	.db #0x9c	; 156
	.db #0xe4	; 228
	.db #0xfc	; 252
	.db #0x18	; 24
	.db #0x18	; 24
	.db #0x00	; 0
	.db #0x00	; 0
	.db #0x0e	; 14
	.db #0x0e	; 14
	.db #0x15	; 21
	.db #0x1b	; 27
	.db #0x25	; 37
	.db #0x3f	; 63
	.db #0x4e	; 78	'N'
	.db #0x7d	; 125
	.db #0x9f	; 159
	.db #0xf8	; 248
	.db #0xff	; 255
	.db #0xb0	; 176
	.db #0x9f	; 159
	.db #0xe0	; 224
	.db #0x6f	; 111	'o'
	.db #0x71	; 113	'q'
	.db #0x17	; 23
	.db #0x1b	; 27
	.db #0x0b	; 11
	.db #0x0f	; 15
	.db #0x06	; 6
	.db #0x07	; 7
	.db #0x05	; 5
	.db #0x06	; 6
	.db #0x02	; 2
	.db #0x03	; 3
	.db #0x01	; 1
	.db #0x01	; 1
	.db #0x00	; 0
	.db #0x00	; 0
	.db #0x00	; 0
	.db #0x00	; 0
	.db #0x00	; 0
	.db #0x00	; 0
	.db #0x00	; 0
	.db #0x00	; 0
	.db #0x00	; 0
	.db #0x00	; 0
	.db #0x80	; 128
	.db #0x80	; 128
	.db #0x40	; 64
	.db #0xc0	; 192
	.db #0xb0	; 176
	.db #0x70	; 112	'p'
	.db #0xe8	; 232
	.db #0xf8	; 248
	.db #0xd4	; 212
	.db #0xec	; 236
	.db #0x9a	; 154
	.db #0xe6	; 230
	.db #0x72	; 114	'r'
	.db #0x8e	; 142
	.db #0x7d	; 125
	.db #0x83	; 131
	.db #0xfa	; 250
	.db #0x06	; 6
	.db #0xb4	; 180
	.db #0x4c	; 76	'L'
	.db #0x28	; 40
	.db #0xd8	; 216
	.db #0xd0	; 208
	.db #0xf0	; 240
	.db #0x20	; 32
	.db #0x20	; 32
	.db #0x01	; 1
	.db #0x01	; 1
	.db #0x06	; 6
	.db #0x07	; 7
	.db #0x19	; 25
	.db #0x1f	; 31
	.db #0x67	; 103	'g'
	.db #0x7f	; 127
	.db #0x7f	; 127
	.db #0x5c	; 92
	.db #0x4f	; 79	'O'
	.db #0x70	; 112	'p'
	.db #0x2f	; 47
	.db #0x30	; 48	'0'
	.db #0x17	; 23
	.db #0x19	; 25
	.db #0x17	; 23
	.db #0x1f	; 31
	.db #0x0f	; 15
	.db #0x0f	; 15
	.db #0x0a	; 10
	.db #0x0f	; 15
	.db #0x0a	; 10
	.db #0x0d	; 13
	.db #0x07	; 7
	.db #0x04	; 4
	.db #0x06	; 6
	.db #0x05	; 5
	.db #0x02	; 2
	.db #0x03	; 3
	.db #0x01	; 1
	.db #0x01	; 1
	.db #0x80	; 128
	.db #0x80	; 128
	.db #0xc0	; 192
	.db #0x40	; 64
	.db #0xa0	; 160
	.db #0xe0	; 224
	.db #0xa0	; 160
	.db #0x60	; 96
	.db #0xa0	; 160
	.db #0x60	; 96
	.db #0xd0	; 208
	.db #0x30	; 48	'0'
	.db #0xf0	; 240
	.db #0x70	; 112	'p'
	.db #0xf8	; 248
	.db #0xf8	; 248
	.db #0xf4	; 244
	.db #0xec	; 236
	.db #0x9c	; 156
	.db #0xe4	; 228
	.db #0x6c	; 108	'l'
	.db #0x94	; 148
	.db #0xf2	; 242
	.db #0x0e	; 14
	.db #0xf2	; 242
	.db #0x0e	; 14
	.db #0xcc	; 204
	.db #0x3c	; 60
	.db #0x30	; 48	'0'
	.db #0xf0	; 240
	.db #0xc0	; 192
	.db #0xc0	; 192
	.db #0x0f	; 15
	.db #0x0f	; 15
	.db #0x08	; 8
	.db #0x0f	; 15
	.db #0x1f	; 31
	.db #0x17	; 23
	.db #0x17	; 23
	.db #0x18	; 24
	.db #0x17	; 23
	.db #0x18	; 24
	.db #0x0f	; 15
	.db #0x08	; 8
	.db #0x0b	; 11
	.db #0x0f	; 15
	.db #0x0f	; 15
	.db #0x0f	; 15
	.db #0x17	; 23
	.db #0x1f	; 31
	.db #0x14	; 20
	.db #0x1b	; 27
	.db #0x1d	; 29
	.db #0x12	; 18
	.db #0x1f	; 31
	.db #0x10	; 16
	.db #0x1b	; 27
	.db #0x14	; 20
	.db #0x13	; 19
	.db #0x1c	; 28
	.db #0x08	; 8
	.db #0x0f	; 15
	.db #0x0f	; 15
	.db #0x0f	; 15
	.db #0xf0	; 240
	.db #0xf0	; 240
	.db #0x10	; 16
	.db #0xf0	; 240
	.db #0xf8	; 248
	.db #0xe8	; 232
	.db #0xe8	; 232
	.db #0x18	; 24
	.db #0xe8	; 232
	.db #0x18	; 24
	.db #0xf0	; 240
	.db #0x10	; 16
	.db #0xd0	; 208
	.db #0xf0	; 240
	.db #0xf0	; 240
	.db #0xf0	; 240
	.db #0xe8	; 232
	.db #0xf8	; 248
	.db #0x28	; 40
	.db #0xd8	; 216
	.db #0xb8	; 184
	.db #0x48	; 72	'H'
	.db #0xf8	; 248
	.db #0x08	; 8
	.db #0xd8	; 216
	.db #0x28	; 40
	.db #0xc8	; 200
	.db #0x38	; 56	'8'
	.db #0x10	; 16
	.db #0xf0	; 240
	.db #0xf0	; 240
	.db #0xf0	; 240
	.db #0x01	; 1
	.db #0x01	; 1
	.db #0x03	; 3
	.db #0x02	; 2
	.db #0x05	; 5
	.db #0x07	; 7
	.db #0x05	; 5
	.db #0x06	; 6
	.db #0x05	; 5
	.db #0x06	; 6
	.db #0x0b	; 11
	.db #0x0c	; 12
	.db #0x0f	; 15
	.db #0x0e	; 14
	.db #0x1f	; 31
	.db #0x1f	; 31
	.db #0x2f	; 47
	.db #0x37	; 55	'7'
	.db #0x39	; 57	'9'
	.db #0x27	; 39
	.db #0x36	; 54	'6'
	.db #0x29	; 41
	.db #0x4f	; 79	'O'
	.db #0x70	; 112	'p'
	.db #0x4f	; 79	'O'
	.db #0x70	; 112	'p'
	.db #0x33	; 51	'3'
	.db #0x3c	; 60
	.db #0x0c	; 12
	.db #0x0f	; 15
	.db #0x03	; 3
	.db #0x03	; 3
	.db #0x80	; 128
	.db #0x80	; 128
	.db #0x60	; 96
	.db #0xe0	; 224
	.db #0x98	; 152
	.db #0xf8	; 248
	.db #0xe6	; 230
	.db #0xfe	; 254
	.db #0xfe	; 254
	.db #0x3a	; 58
	.db #0xf2	; 242
	.db #0x0e	; 14
	.db #0xf4	; 244
	.db #0x0c	; 12
	.db #0xe8	; 232
	.db #0x98	; 152
	.db #0xe8	; 232
	.db #0xf8	; 248
	.db #0xf0	; 240
	.db #0xf0	; 240
	.db #0x50	; 80	'P'
	.db #0xf0	; 240
	.db #0x50	; 80	'P'
	.db #0xb0	; 176
	.db #0xe0	; 224
	.db #0x20	; 32
	.db #0x60	; 96
	.db #0xa0	; 160
	.db #0x40	; 64
	.db #0xc0	; 192
	.db #0x80	; 128
	.db #0x80	; 128
	.db #0x00	; 0
	.db #0x00	; 0
	.db #0x00	; 0
	.db #0x00	; 0
	.db #0x00	; 0
	.db #0x00	; 0
	.db #0x01	; 1
	.db #0x01	; 1
	.db #0x02	; 2
	.db #0x03	; 3
	.db #0x0d	; 13
	.db #0x0e	; 14
	.db #0x17	; 23
	.db #0x1f	; 31
	.db #0x2b	; 43
	.db #0x37	; 55	'7'
	.db #0x59	; 89	'Y'
	.db #0x67	; 103	'g'
	.db #0x4e	; 78	'N'
	.db #0x71	; 113	'q'
	.db #0xbe	; 190
	.db #0xc1	; 193
	.db #0x5f	; 95
	.db #0x60	; 96
	.db #0x2d	; 45
	.db #0x32	; 50	'2'
	.db #0x14	; 20
	.db #0x1b	; 27
	.db #0x0b	; 11
	.db #0x0f	; 15
	.db #0x04	; 4
	.db #0x04	; 4
	.db #0x70	; 112	'p'
	.db #0x70	; 112	'p'
	.db #0xa8	; 168
	.db #0xd8	; 216
	.db #0xa4	; 164
	.db #0xfc	; 252
	.db #0x72	; 114	'r'
	.db #0xbe	; 190
	.db #0xf9	; 249
	.db #0x1f	; 31
	.db #0xff	; 255
	.db #0x0d	; 13
	.db #0xf9	; 249
	.db #0x07	; 7
	.db #0xf6	; 246
	.db #0x8e	; 142
	.db #0xe8	; 232
	.db #0xd8	; 216
	.db #0xd0	; 208
	.db #0xf0	; 240
	.db #0x60	; 96
	.db #0xe0	; 224
	.db #0xa0	; 160
	.db #0x60	; 96
	.db #0x40	; 64
	.db #0xc0	; 192
	.db #0x80	; 128
	.db #0x80	; 128
	.db #0x00	; 0
	.db #0x00	; 0
	.db #0x00	; 0
	.db #0x00	; 0
	.db #0x00	; 0
	.db #0x00	; 0
	.db #0x00	; 0
	.db #0x00	; 0
	.db #0x00	; 0
	.db #0x00	; 0
	.db #0x01	; 1
	.db #0x01	; 1
	.db #0x0e	; 14
	.db #0x0f	; 15
	.db #0x33	; 51	'3'
	.db #0x3f	; 63
	.db #0x7f	; 127
	.db #0x47	; 71	'G'
	.db #0x93	; 147
	.db #0xef	; 239
	.db #0xbb	; 187
	.db #0xc7	; 199
	.db #0xbd	; 189
	.db #0xc3	; 195
	.db #0x5d	; 93
	.db #0x63	; 99	'c'
	.db #0x5b	; 91
	.db #0x64	; 100	'd'
	.db #0x26	; 38
	.db #0x39	; 57	'9'
	.db #0x27	; 39
	.db #0x3f	; 63
	.db #0x18	; 24
	.db #0x18	; 24
	.db #0x00	; 0
	.db #0x00	; 0
	.db #0x00	; 0
	.db #0x00	; 0
	.db #0x38	; 56	'8'
	.db #0x38	; 56	'8'
	.db #0x58	; 88	'X'
	.db #0x68	; 104	'h'
	.db #0x94	; 148
	.db #0xfc	; 252
	.db #0x74	; 116	't'
	.db #0x9c	; 156
	.db #0xfa	; 250
	.db #0x1e	; 30
	.db #0xfa	; 250
	.db #0x0e	; 14
	.db #0xfd	; 253
	.db #0x8f	; 143
	.db #0xff	; 255
	.db #0x85	; 133
	.db #0xe2	; 226
	.db #0xde	; 222
	.db #0xdc	; 220
	.db #0xfc	; 252
	.db #0xe0	; 224
	.db #0xe0	; 224
	.db #0x80	; 128
	.db #0x80	; 128
	.db #0x00	; 0
	.db #0x00	; 0
	.db #0x00	; 0
	.db #0x00	; 0
	.db #0x00	; 0
	.db #0x00	; 0
	.db #0x00	; 0
	.db #0x00	; 0
	.db #0x00	; 0
	.db #0x00	; 0
	.db #0x00	; 0
	.db #0x00	; 0
	.db #0x3f	; 63
	.db #0x3f	; 63
	.db #0xdc	; 220
	.db #0xe3	; 227
	.db #0x8f	; 143
	.db #0xf1	; 241
	.db #0xb9	; 185
	.db #0xc7	; 199
	.db #0xbd	; 189
	.db #0xc3	; 195
	.db #0xbd	; 189
	.db #0xc3	; 195
	.db #0xb9	; 185
	.db #0xc7	; 199
	.db #0x8f	; 143
	.db #0xf1	; 241
	.db #0xdc	; 220
	.db #0xe3	; 227
	.db #0x3f	; 63
	.db #0x3f	; 63
	.db #0x00	; 0
	.db #0x00	; 0
	.db #0x00	; 0
	.db #0x00	; 0
	.db #0x00	; 0
	.db #0x00	; 0
	.db #0x00	; 0
	.db #0x00	; 0
	.db #0x00	; 0
	.db #0x00	; 0
	.db #0x00	; 0
	.db #0x00	; 0
	.db #0x1c	; 28
	.db #0x1c	; 28
	.db #0xe7	; 231
	.db #0xfb	; 251
	.db #0xbd	; 189
	.db #0xc7	; 199
	.db #0xfd	; 253
	.db #0xc7	; 199
	.db #0xfd	; 253
	.db #0xc7	; 199
	.db #0xfd	; 253
	.db #0xc7	; 199
	.db #0xfd	; 253
	.db #0xc7	; 199
	.db #0xbd	; 189
	.db #0xc7	; 199
	.db #0xe7	; 231
	.db #0xfb	; 251
	.db #0x1c	; 28
	.db #0x1c	; 28
	.db #0x00	; 0
	.db #0x00	; 0
	.db #0x00	; 0
	.db #0x00	; 0
	.db #0x00	; 0
	.db #0x00	; 0
	.db #0x00	; 0
	.db #0x00	; 0
	.db #0x18	; 24
	.db #0x18	; 24
	.db #0x27	; 39
	.db #0x3f	; 63
	.db #0x26	; 38
	.db #0x39	; 57	'9'
	.db #0x5b	; 91
	.db #0x64	; 100	'd'
	.db #0x5d	; 93
	.db #0x63	; 99	'c'
	.db #0xbd	; 189
	.db #0xc3	; 195
	.db #0xbb	; 187
	.db #0xc7	; 199
	.db #0x93	; 147
	.db #0xef	; 239
	.db #0x7f	; 127
	.db #0x47	; 71	'G'
	.db #0x33	; 51	'3'
	.db #0x3f	; 63
	.db #0x0e	; 14
	.db #0x0f	; 15
	.db #0x01	; 1
	.db #0x01	; 1
	.db #0x00	; 0
	.db #0x00	; 0
	.db #0x00	; 0
	.db #0x00	; 0
	.db #0x00	; 0
	.db #0x00	; 0
	.db #0x00	; 0
	.db #0x00	; 0
	.db #0x00	; 0
	.db #0x00	; 0
	.db #0x00	; 0
	.db #0x00	; 0
	.db #0x80	; 128
	.db #0x80	; 128
	.db #0xe0	; 224
	.db #0xe0	; 224
	.db #0xdc	; 220
	.db #0xfc	; 252
	.db #0xe2	; 226
	.db #0xde	; 222
	.db #0xff	; 255
	.db #0x85	; 133
	.db #0xfd	; 253
	.db #0x8f	; 143
	.db #0xfa	; 250
	.db #0x0e	; 14
	.db #0xfa	; 250
	.db #0x1e	; 30
	.db #0x74	; 116	't'
	.db #0x9c	; 156
	.db #0x94	; 148
	.db #0xfc	; 252
	.db #0x58	; 88	'X'
	.db #0x68	; 104	'h'
	.db #0x38	; 56	'8'
	.db #0x38	; 56	'8'
	.db #0x00	; 0
	.db #0x00	; 0
	.db #0x04	; 4
	.db #0x04	; 4
	.db #0x0b	; 11
	.db #0x0f	; 15
	.db #0x14	; 20
	.db #0x1b	; 27
	.db #0x2d	; 45
	.db #0x32	; 50	'2'
	.db #0x5f	; 95
	.db #0x60	; 96
	.db #0xbe	; 190
	.db #0xc1	; 193
	.db #0x4e	; 78	'N'
	.db #0x71	; 113	'q'
	.db #0x59	; 89	'Y'
	.db #0x67	; 103	'g'
	.db #0x2b	; 43
	.db #0x37	; 55	'7'
	.db #0x17	; 23
	.db #0x1f	; 31
	.db #0x0d	; 13
	.db #0x0e	; 14
	.db #0x02	; 2
	.db #0x03	; 3
	.db #0x01	; 1
	.db #0x01	; 1
	.db #0x00	; 0
	.db #0x00	; 0
	.db #0x00	; 0
	.db #0x00	; 0
	.db #0x00	; 0
	.db #0x00	; 0
	.db #0x00	; 0
	.db #0x00	; 0
	.db #0x00	; 0
	.db #0x00	; 0
	.db #0x80	; 128
	.db #0x80	; 128
	.db #0x40	; 64
	.db #0xc0	; 192
	.db #0xa0	; 160
	.db #0x60	; 96
	.db #0x60	; 96
	.db #0xe0	; 224
	.db #0xd0	; 208
	.db #0xf0	; 240
	.db #0xe8	; 232
	.db #0xd8	; 216
	.db #0xf6	; 246
	.db #0x8e	; 142
	.db #0xf9	; 249
	.db #0x07	; 7
	.db #0xff	; 255
	.db #0x0d	; 13
	.db #0xf9	; 249
	.db #0x1f	; 31
	.db #0x72	; 114	'r'
	.db #0xbe	; 190
	.db #0xa4	; 164
	.db #0xfc	; 252
	.db #0xa8	; 168
	.db #0xd8	; 216
	.db #0x70	; 112	'p'
	.db #0x70	; 112	'p'
	.db #0x03	; 3
	.db #0x03	; 3
	.db #0x0c	; 12
	.db #0x0f	; 15
	.db #0x33	; 51	'3'
	.db #0x3c	; 60
	.db #0x4f	; 79	'O'
	.db #0x70	; 112	'p'
	.db #0x4f	; 79	'O'
	.db #0x70	; 112	'p'
	.db #0x36	; 54	'6'
	.db #0x29	; 41
	.db #0x39	; 57	'9'
	.db #0x27	; 39
	.db #0x2f	; 47
	.db #0x37	; 55	'7'
	.db #0x1f	; 31
	.db #0x1f	; 31
	.db #0x0f	; 15
	.db #0x0e	; 14
	.db #0x0b	; 11
	.db #0x0c	; 12
	.db #0x05	; 5
	.db #0x06	; 6
	.db #0x05	; 5
	.db #0x06	; 6
	.db #0x05	; 5
	.db #0x07	; 7
	.db #0x03	; 3
	.db #0x02	; 2
	.db #0x01	; 1
	.db #0x01	; 1
	.db #0x80	; 128
	.db #0x80	; 128
	.db #0x40	; 64
	.db #0xc0	; 192
	.db #0x60	; 96
	.db #0xa0	; 160
	.db #0xe0	; 224
	.db #0x20	; 32
	.db #0x50	; 80	'P'
	.db #0xb0	; 176
	.db #0x50	; 80	'P'
	.db #0xf0	; 240
	.db #0xf0	; 240
	.db #0xf0	; 240
	.db #0xe8	; 232
	.db #0xf8	; 248
	.db #0xe8	; 232
	.db #0x98	; 152
	.db #0xf4	; 244
	.db #0x0c	; 12
	.db #0xf2	; 242
	.db #0x0e	; 14
	.db #0xfe	; 254
	.db #0x3a	; 58
	.db #0xe6	; 230
	.db #0xfe	; 254
	.db #0x98	; 152
	.db #0xf8	; 248
	.db #0x60	; 96
	.db #0xe0	; 224
	.db #0x80	; 128
	.db #0x80	; 128
_car_dark:
	.db #0x0f	; 15
	.db #0x0f	; 15
	.db #0x0f	; 15
	.db #0x0f	; 15
	.db #0x1c	; 28
	.db #0x1f	; 31
	.db #0x14	; 20
	.db #0x1f	; 31
	.db #0x10	; 16
	.db #0x1f	; 31
	.db #0x12	; 18
	.db #0x1f	; 31
	.db #0x1b	; 27
	.db #0x1f	; 31
	.db #0x1f	; 31
	.db #0x1f	; 31
	.db #0x0f	; 15
	.db #0x0f	; 15
	.db #0x0f	; 15
	.db #0x0f	; 15
	.db #0x08	; 8
	.db #0x0f	; 15
	.db #0x18	; 24
	.db #0x1f	; 31
	.db #0x18	; 24
	.db #0x1f	; 31
	.db #0x17	; 23
	.db #0x1f	; 31
	.db #0x0f	; 15
	.db #0x0f	; 15
	.db #0x0f	; 15
	.db #0x0f	; 15
	.db #0xf0	; 240
	.db #0xf0	; 240
	.db #0xf0	; 240
	.db #0xf0	; 240
	.db #0x38	; 56	'8'
	.db #0xf8	; 248
	.db #0x28	; 40
	.db #0xf8	; 248
	.db #0x08	; 8
	.db #0xf8	; 248
	.db #0x48	; 72	'H'
	.db #0xf8	; 248
	.db #0xd8	; 216
	.db #0xf8	; 248
	.db #0xf8	; 248
	.db #0xf8	; 248
	.db #0xf0	; 240
	.db #0xf0	; 240
	.db #0xf0	; 240
	.db #0xf0	; 240
	.db #0x10	; 16
	.db #0xf0	; 240
	.db #0x18	; 24
	.db #0xf8	; 248
	.db #0x18	; 24
	.db #0xf8	; 248
	.db #0xe8	; 232
	.db #0xf8	; 248
	.db #0xf0	; 240
	.db #0xf0	; 240
	.db #0xf0	; 240
	.db #0xf0	; 240
	.db #0x01	; 1
	.db #0x01	; 1
	.db #0x03	; 3
	.db #0x03	; 3
	.db #0x05	; 5
	.db #0x07	; 7
	.db #0x04	; 4
	.db #0x07	; 7
	.db #0x0d	; 13
	.db #0x0f	; 15
	.db #0x0f	; 15
	.db #0x0f	; 15
	.db #0x0f	; 15
	.db #0x0f	; 15
	.db #0x1f	; 31
	.db #0x1f	; 31
	.db #0x19	; 25
	.db #0x1f	; 31
	.db #0x30	; 48	'0'
	.db #0x3f	; 63
	.db #0x70	; 112	'p'
	.db #0x7f	; 127
	.db #0x5c	; 92
	.db #0x7f	; 127
	.db #0x7f	; 127
	.db #0x7f	; 127
	.db #0x1f	; 31
	.db #0x1f	; 31
	.db #0x07	; 7
	.db #0x07	; 7
	.db #0x01	; 1
	.db #0x01	; 1
	.db #0xc0	; 192
	.db #0xc0	; 192
	.db #0xf0	; 240
	.db #0xf0	; 240
	.db #0x3c	; 60
	.db #0xfc	; 252
	.db #0x0e	; 14
	.db #0xfe	; 254
	.db #0x0e	; 14
	.db #0xfe	; 254
	.db #0x94	; 148
	.db #0xfc	; 252
	.db #0xe4	; 228
	.db #0xfc	; 252
	.db #0xec	; 236
	.db #0xfc	; 252
	.db #0xf8	; 248
	.db #0xf8	; 248
	.db #0x70	; 112	'p'
	.db #0xf0	; 240
	.db #0x30	; 48	'0'
	.db #0xf0	; 240
	.db #0x60	; 96
	.db #0xe0	; 224
	.db #0x60	; 96
	.db #0xe0	; 224
	.db #0xe0	; 224
	.db #0xe0	; 224
	.db #0x40	; 64
	.db #0xc0	; 192
	.db #0x80	; 128
	.db #0x80	; 128
	.db #0x00	; 0
	.db #0x00	; 0
	.db #0x00	; 0
	.db #0x00	; 0
	.db #0x01	; 1
	.db #0x01	; 1
	.db #0x03	; 3
	.db #0x03	; 3
	.db #0x06	; 6
	.db #0x07	; 7
	.db #0x07	; 7
	.db #0x07	; 7
	.db #0x0f	; 15
	.db #0x0f	; 15
	.db #0x1b	; 27
	.db #0x1f	; 31
	.db #0x71	; 113	'q'
	.db #0x7f	; 127
	.db #0xe0	; 224
	.db #0xff	; 255
	.db #0xb0	; 176
	.db #0xff	; 255
	.db #0xf8	; 248
	.db #0xff	; 255
	.db #0x7d	; 125
	.db #0x7f	; 127
	.db #0x3f	; 63
	.db #0x3f	; 63
	.db #0x1b	; 27
	.db #0x1f	; 31
	.db #0x0e	; 14
	.db #0x0e	; 14
	.db #0x20	; 32
	.db #0x20	; 32
	.db #0xf0	; 240
	.db #0xf0	; 240
	.db #0xd8	; 216
	.db #0xf8	; 248
	.db #0x4c	; 76	'L'
	.db #0xfc	; 252
	.db #0x06	; 6
	.db #0xfe	; 254
	.db #0x83	; 131
	.db #0xff	; 255
	.db #0x8e	; 142
	.db #0xfe	; 254
	.db #0xe6	; 230
	.db #0xfe	; 254
	.db #0xec	; 236
	.db #0xfc	; 252
	.db #0xf8	; 248
	.db #0xf8	; 248
	.db #0x70	; 112	'p'
	.db #0xf0	; 240
	.db #0xc0	; 192
	.db #0xc0	; 192
	.db #0x80	; 128
	.db #0x80	; 128
	.db #0x00	; 0
	.db #0x00	; 0
	.db #0x00	; 0
	.db #0x00	; 0
	.db #0x00	; 0
	.db #0x00	; 0
	.db #0x00	; 0
	.db #0x00	; 0
	.db #0x00	; 0
	.db #0x00	; 0
	.db #0x00	; 0
	.db #0x00	; 0
	.db #0x01	; 1
	.db #0x01	; 1
	.db #0x07	; 7
	.db #0x07	; 7
	.db #0x3f	; 63
	.db #0x3f	; 63
	.db #0x7b	; 123
	.db #0x7f	; 127
	.db #0xa1	; 161
	.db #0xff	; 255
	.db #0xf1	; 241
	.db #0xff	; 255
	.db #0x70	; 112	'p'
	.db #0x7f	; 127
	.db #0x78	; 120	'x'
	.db #0x7f	; 127
	.db #0x39	; 57	'9'
	.db #0x3f	; 63
	.db #0x3f	; 63
	.db #0x3f	; 63
	.db #0x16	; 22
	.db #0x1e	; 30
	.db #0x1c	; 28
	.db #0x1c	; 28
	.db #0x00	; 0
	.db #0x00	; 0
	.db #0x00	; 0
	.db #0x00	; 0
	.db #0x18	; 24
	.db #0x18	; 24
	.db #0xfc	; 252
	.db #0xfc	; 252
	.db #0x9c	; 156
	.db #0xfc	; 252
	.db #0x26	; 38
	.db #0xfe	; 254
	.db #0xc6	; 198
	.db #0xfe	; 254
	.db #0xc3	; 195
	.db #0xff	; 255
	.db #0xe3	; 227
	.db #0xff	; 255
	.db #0xf7	; 247
	.db #0xff	; 255
	.db #0xe2	; 226
	.db #0xfe	; 254
	.db #0xfc	; 252
	.db #0xfc	; 252
	.db #0xf0	; 240
	.db #0xf0	; 240
	.db #0x80	; 128
	.db #0x80	; 128
	.db #0x00	; 0
	.db #0x00	; 0
	.db #0x00	; 0
	.db #0x00	; 0
	.db #0x00	; 0
	.db #0x00	; 0
	.db #0x00	; 0
	.db #0x00	; 0
	.db #0x00	; 0
	.db #0x00	; 0
	.db #0x00	; 0
	.db #0x00	; 0
	.db #0x38	; 56	'8'
	.db #0x38	; 56	'8'
	.db #0xdf	; 223
	.db #0xff	; 255
	.db #0xe3	; 227
	.db #0xff	; 255
	.db #0xe3	; 227
	.db #0xff	; 255
	.db #0xe3	; 227
	.db #0xff	; 255
	.db #0xe3	; 227
	.db #0xff	; 255
	.db #0xe3	; 227
	.db #0xff	; 255
	.db #0xe3	; 227
	.db #0xff	; 255
	.db #0xdf	; 223
	.db #0xff	; 255
	.db #0x38	; 56	'8'
	.db #0x38	; 56	'8'
	.db #0x00	; 0
	.db #0x00	; 0
	.db #0x00	; 0
	.db #0x00	; 0
	.db #0x00	; 0
	.db #0x00	; 0
	.db #0x00	; 0
	.db #0x00	; 0
	.db #0x00	; 0
	.db #0x00	; 0
	.db #0x00	; 0
	.db #0x00	; 0
	.db #0xfc	; 252
	.db #0xfc	; 252
	.db #0xc7	; 199
	.db #0xff	; 255
	.db #0x8f	; 143
	.db #0xff	; 255
	.db #0xe3	; 227
	.db #0xff	; 255
	.db #0xc3	; 195
	.db #0xff	; 255
	.db #0xc3	; 195
	.db #0xff	; 255
	.db #0xe3	; 227
	.db #0xff	; 255
	.db #0x8f	; 143
	.db #0xff	; 255
	.db #0xc7	; 199
	.db #0xff	; 255
	.db #0xfc	; 252
	.db #0xfc	; 252
	.db #0x00	; 0
	.db #0x00	; 0
	.db #0x00	; 0
	.db #0x00	; 0
	.db #0x00	; 0
	.db #0x00	; 0
	.db #0x00	; 0
	.db #0x00	; 0
	.db #0x1c	; 28
	.db #0x1c	; 28
	.db #0x16	; 22
	.db #0x1e	; 30
	.db #0x3f	; 63
	.db #0x3f	; 63
	.db #0x39	; 57	'9'
	.db #0x3f	; 63
	.db #0x78	; 120	'x'
	.db #0x7f	; 127
	.db #0x70	; 112	'p'
	.db #0x7f	; 127
	.db #0xf1	; 241
	.db #0xff	; 255
	.db #0xa1	; 161
	.db #0xff	; 255
	.db #0x7b	; 123
	.db #0x7f	; 127
	.db #0x3f	; 63
	.db #0x3f	; 63
	.db #0x07	; 7
	.db #0x07	; 7
	.db #0x01	; 1
	.db #0x01	; 1
	.db #0x00	; 0
	.db #0x00	; 0
	.db #0x00	; 0
	.db #0x00	; 0
	.db #0x00	; 0
	.db #0x00	; 0
	.db #0x00	; 0
	.db #0x00	; 0
	.db #0x00	; 0
	.db #0x00	; 0
	.db #0x00	; 0
	.db #0x00	; 0
	.db #0x80	; 128
	.db #0x80	; 128
	.db #0xf0	; 240
	.db #0xf0	; 240
	.db #0xfc	; 252
	.db #0xfc	; 252
	.db #0xe2	; 226
	.db #0xfe	; 254
	.db #0xf7	; 247
	.db #0xff	; 255
	.db #0xe3	; 227
	.db #0xff	; 255
	.db #0xc3	; 195
	.db #0xff	; 255
	.db #0xc6	; 198
	.db #0xfe	; 254
	.db #0x26	; 38
	.db #0xfe	; 254
	.db #0x9c	; 156
	.db #0xfc	; 252
	.db #0xfc	; 252
	.db #0xfc	; 252
	.db #0x18	; 24
	.db #0x18	; 24
	.db #0x00	; 0
	.db #0x00	; 0
	.db #0x0e	; 14
	.db #0x0e	; 14
	.db #0x1b	; 27
	.db #0x1f	; 31
	.db #0x3f	; 63
	.db #0x3f	; 63
	.db #0x7d	; 125
	.db #0x7f	; 127
	.db #0xf8	; 248
	.db #0xff	; 255
	.db #0xb0	; 176
	.db #0xff	; 255
	.db #0xe0	; 224
	.db #0xff	; 255
	.db #0x71	; 113	'q'
	.db #0x7f	; 127
	.db #0x1b	; 27
	.db #0x1f	; 31
	.db #0x0f	; 15
	.db #0x0f	; 15
	.db #0x07	; 7
	.db #0x07	; 7
	.db #0x06	; 6
	.db #0x07	; 7
	.db #0x03	; 3
	.db #0x03	; 3
	.db #0x01	; 1
	.db #0x01	; 1
	.db #0x00	; 0
	.db #0x00	; 0
	.db #0x00	; 0
	.db #0x00	; 0
	.db #0x00	; 0
	.db #0x00	; 0
	.db #0x00	; 0
	.db #0x00	; 0
	.db #0x00	; 0
	.db #0x00	; 0
	.db #0x80	; 128
	.db #0x80	; 128
	.db #0xc0	; 192
	.db #0xc0	; 192
	.db #0x70	; 112	'p'
	.db #0xf0	; 240
	.db #0xf8	; 248
	.db #0xf8	; 248
	.db #0xec	; 236
	.db #0xfc	; 252
	.db #0xe6	; 230
	.db #0xfe	; 254
	.db #0x8e	; 142
	.db #0xfe	; 254
	.db #0x83	; 131
	.db #0xff	; 255
	.db #0x06	; 6
	.db #0xfe	; 254
	.db #0x4c	; 76	'L'
	.db #0xfc	; 252
	.db #0xd8	; 216
	.db #0xf8	; 248
	.db #0xf0	; 240
	.db #0xf0	; 240
	.db #0x20	; 32
	.db #0x20	; 32
	.db #0x01	; 1
	.db #0x01	; 1
	.db #0x07	; 7
	.db #0x07	; 7
	.db #0x1f	; 31
	.db #0x1f	; 31
	.db #0x7f	; 127
	.db #0x7f	; 127
	.db #0x5c	; 92
	.db #0x7f	; 127
	.db #0x70	; 112	'p'
	.db #0x7f	; 127
	.db #0x30	; 48	'0'
	.db #0x3f	; 63
	.db #0x19	; 25
	.db #0x1f	; 31
	.db #0x1f	; 31
	.db #0x1f	; 31
	.db #0x0f	; 15
	.db #0x0f	; 15
	.db #0x0f	; 15
	.db #0x0f	; 15
	.db #0x0d	; 13
	.db #0x0f	; 15
	.db #0x04	; 4
	.db #0x07	; 7
	.db #0x05	; 5
	.db #0x07	; 7
	.db #0x03	; 3
	.db #0x03	; 3
	.db #0x01	; 1
	.db #0x01	; 1
	.db #0x80	; 128
	.db #0x80	; 128
	.db #0x40	; 64
	.db #0xc0	; 192
	.db #0xe0	; 224
	.db #0xe0	; 224
	.db #0x60	; 96
	.db #0xe0	; 224
	.db #0x60	; 96
	.db #0xe0	; 224
	.db #0x30	; 48	'0'
	.db #0xf0	; 240
	.db #0x70	; 112	'p'
	.db #0xf0	; 240
	.db #0xf8	; 248
	.db #0xf8	; 248
	.db #0xec	; 236
	.db #0xfc	; 252
	.db #0xe4	; 228
	.db #0xfc	; 252
	.db #0x94	; 148
	.db #0xfc	; 252
	.db #0x0e	; 14
	.db #0xfe	; 254
	.db #0x0e	; 14
	.db #0xfe	; 254
	.db #0x3c	; 60
	.db #0xfc	; 252
	.db #0xf0	; 240
	.db #0xf0	; 240
	.db #0xc0	; 192
	.db #0xc0	; 192
	.db #0x0f	; 15
	.db #0x0f	; 15
	.db #0x0f	; 15
	.db #0x0f	; 15
	.db #0x17	; 23
	.db #0x1f	; 31
	.db #0x18	; 24
	.db #0x1f	; 31
	.db #0x18	; 24
	.db #0x1f	; 31
	.db #0x08	; 8
	.db #0x0f	; 15
	.db #0x0f	; 15
	.db #0x0f	; 15
	.db #0x0f	; 15
	.db #0x0f	; 15
	.db #0x1f	; 31
	.db #0x1f	; 31
	.db #0x1b	; 27
	.db #0x1f	; 31
	.db #0x12	; 18
	.db #0x1f	; 31
	.db #0x10	; 16
	.db #0x1f	; 31
	.db #0x14	; 20
	.db #0x1f	; 31
	.db #0x1c	; 28
	.db #0x1f	; 31
	.db #0x0f	; 15
	.db #0x0f	; 15
	.db #0x0f	; 15
	.db #0x0f	; 15
	.db #0xf0	; 240
	.db #0xf0	; 240
	.db #0xf0	; 240
	.db #0xf0	; 240
	.db #0xe8	; 232
	.db #0xf8	; 248
	.db #0x18	; 24
	.db #0xf8	; 248
	.db #0x18	; 24
	.db #0xf8	; 248
	.db #0x10	; 16
	.db #0xf0	; 240
	.db #0xf0	; 240
	.db #0xf0	; 240
	.db #0xf0	; 240
	.db #0xf0	; 240
	.db #0xf8	; 248
	.db #0xf8	; 248
	.db #0xd8	; 216
	.db #0xf8	; 248
	.db #0x48	; 72	'H'
	.db #0xf8	; 248
	.db #0x08	; 8
	.db #0xf8	; 248
	.db #0x28	; 40
	.db #0xf8	; 248
	.db #0x38	; 56	'8'
	.db #0xf8	; 248
	.db #0xf0	; 240
	.db #0xf0	; 240
	.db #0xf0	; 240
	.db #0xf0	; 240
	.db #0x01	; 1
	.db #0x01	; 1
	.db #0x02	; 2
	.db #0x03	; 3
	.db #0x07	; 7
	.db #0x07	; 7
	.db #0x06	; 6
	.db #0x07	; 7
	.db #0x06	; 6
	.db #0x07	; 7
	.db #0x0c	; 12
	.db #0x0f	; 15
	.db #0x0e	; 14
	.db #0x0f	; 15
	.db #0x1f	; 31
	.db #0x1f	; 31
	.db #0x37	; 55	'7'
	.db #0x3f	; 63
	.db #0x27	; 39
	.db #0x3f	; 63
	.db #0x29	; 41
	.db #0x3f	; 63
	.db #0x70	; 112	'p'
	.db #0x7f	; 127
	.db #0x70	; 112	'p'
	.db #0x7f	; 127
	.db #0x3c	; 60
	.db #0x3f	; 63
	.db #0x0f	; 15
	.db #0x0f	; 15
	.db #0x03	; 3
	.db #0x03	; 3
	.db #0x80	; 128
	.db #0x80	; 128
	.db #0xe0	; 224
	.db #0xe0	; 224
	.db #0xf8	; 248
	.db #0xf8	; 248
	.db #0xfe	; 254
	.db #0xfe	; 254
	.db #0x3a	; 58
	.db #0xfe	; 254
	.db #0x0e	; 14
	.db #0xfe	; 254
	.db #0x0c	; 12
	.db #0xfc	; 252
	.db #0x98	; 152
	.db #0xf8	; 248
	.db #0xf8	; 248
	.db #0xf8	; 248
	.db #0xf0	; 240
	.db #0xf0	; 240
	.db #0xf0	; 240
	.db #0xf0	; 240
	.db #0xb0	; 176
	.db #0xf0	; 240
	.db #0x20	; 32
	.db #0xe0	; 224
	.db #0xa0	; 160
	.db #0xe0	; 224
	.db #0xc0	; 192
	.db #0xc0	; 192
	.db #0x80	; 128
	.db #0x80	; 128
	.db #0x00	; 0
	.db #0x00	; 0
	.db #0x00	; 0
	.db #0x00	; 0
	.db #0x00	; 0
	.db #0x00	; 0
	.db #0x01	; 1
	.db #0x01	; 1
	.db #0x03	; 3
	.db #0x03	; 3
	.db #0x0e	; 14
	.db #0x0f	; 15
	.db #0x1f	; 31
	.db #0x1f	; 31
	.db #0x37	; 55	'7'
	.db #0x3f	; 63
	.db #0x67	; 103	'g'
	.db #0x7f	; 127
	.db #0x71	; 113	'q'
	.db #0x7f	; 127
	.db #0xc1	; 193
	.db #0xff	; 255
	.db #0x60	; 96
	.db #0x7f	; 127
	.db #0x32	; 50	'2'
	.db #0x3f	; 63
	.db #0x1b	; 27
	.db #0x1f	; 31
	.db #0x0f	; 15
	.db #0x0f	; 15
	.db #0x04	; 4
	.db #0x04	; 4
	.db #0x70	; 112	'p'
	.db #0x70	; 112	'p'
	.db #0xd8	; 216
	.db #0xf8	; 248
	.db #0xfc	; 252
	.db #0xfc	; 252
	.db #0xbe	; 190
	.db #0xfe	; 254
	.db #0x1f	; 31
	.db #0xff	; 255
	.db #0x0d	; 13
	.db #0xff	; 255
	.db #0x07	; 7
	.db #0xff	; 255
	.db #0x8e	; 142
	.db #0xfe	; 254
	.db #0xd8	; 216
	.db #0xf8	; 248
	.db #0xf0	; 240
	.db #0xf0	; 240
	.db #0xe0	; 224
	.db #0xe0	; 224
	.db #0x60	; 96
	.db #0xe0	; 224
	.db #0xc0	; 192
	.db #0xc0	; 192
	.db #0x80	; 128
	.db #0x80	; 128
	.db #0x00	; 0
	.db #0x00	; 0
	.db #0x00	; 0
	.db #0x00	; 0
	.db #0x00	; 0
	.db #0x00	; 0
	.db #0x00	; 0
	.db #0x00	; 0
	.db #0x00	; 0
	.db #0x00	; 0
	.db #0x01	; 1
	.db #0x01	; 1
	.db #0x0f	; 15
	.db #0x0f	; 15
	.db #0x3f	; 63
	.db #0x3f	; 63
	.db #0x47	; 71	'G'
	.db #0x7f	; 127
	.db #0xef	; 239
	.db #0xff	; 255
	.db #0xc7	; 199
	.db #0xff	; 255
	.db #0xc3	; 195
	.db #0xff	; 255
	.db #0x63	; 99	'c'
	.db #0x7f	; 127
	.db #0x64	; 100	'd'
	.db #0x7f	; 127
	.db #0x39	; 57	'9'
	.db #0x3f	; 63
	.db #0x3f	; 63
	.db #0x3f	; 63
	.db #0x18	; 24
	.db #0x18	; 24
	.db #0x00	; 0
	.db #0x00	; 0
	.db #0x00	; 0
	.db #0x00	; 0
	.db #0x38	; 56	'8'
	.db #0x38	; 56	'8'
	.db #0x68	; 104	'h'
	.db #0x78	; 120	'x'
	.db #0xfc	; 252
	.db #0xfc	; 252
	.db #0x9c	; 156
	.db #0xfc	; 252
	.db #0x1e	; 30
	.db #0xfe	; 254
	.db #0x0e	; 14
	.db #0xfe	; 254
	.db #0x8f	; 143
	.db #0xff	; 255
	.db #0x85	; 133
	.db #0xff	; 255
	.db #0xde	; 222
	.db #0xfe	; 254
	.db #0xfc	; 252
	.db #0xfc	; 252
	.db #0xe0	; 224
	.db #0xe0	; 224
	.db #0x80	; 128
	.db #0x80	; 128
	.db #0x00	; 0
	.db #0x00	; 0
	.db #0x00	; 0
	.db #0x00	; 0
	.db #0x00	; 0
	.db #0x00	; 0
	.db #0x00	; 0
	.db #0x00	; 0
	.db #0x00	; 0
	.db #0x00	; 0
	.db #0x00	; 0
	.db #0x00	; 0
	.db #0x3f	; 63
	.db #0x3f	; 63
	.db #0xe3	; 227
	.db #0xff	; 255
	.db #0xf1	; 241
	.db #0xff	; 255
	.db #0xc7	; 199
	.db #0xff	; 255
	.db #0xc3	; 195
	.db #0xff	; 255
	.db #0xc3	; 195
	.db #0xff	; 255
	.db #0xc7	; 199
	.db #0xff	; 255
	.db #0xf1	; 241
	.db #0xff	; 255
	.db #0xe3	; 227
	.db #0xff	; 255
	.db #0x3f	; 63
	.db #0x3f	; 63
	.db #0x00	; 0
	.db #0x00	; 0
	.db #0x00	; 0
	.db #0x00	; 0
	.db #0x00	; 0
	.db #0x00	; 0
	.db #0x00	; 0
	.db #0x00	; 0
	.db #0x00	; 0
	.db #0x00	; 0
	.db #0x00	; 0
	.db #0x00	; 0
	.db #0x1c	; 28
	.db #0x1c	; 28
	.db #0xfb	; 251
	.db #0xff	; 255
	.db #0xc7	; 199
	.db #0xff	; 255
	.db #0xc7	; 199
	.db #0xff	; 255
	.db #0xc7	; 199
	.db #0xff	; 255
	.db #0xc7	; 199
	.db #0xff	; 255
	.db #0xc7	; 199
	.db #0xff	; 255
	.db #0xc7	; 199
	.db #0xff	; 255
	.db #0xfb	; 251
	.db #0xff	; 255
	.db #0x1c	; 28
	.db #0x1c	; 28
	.db #0x00	; 0
	.db #0x00	; 0
	.db #0x00	; 0
	.db #0x00	; 0
	.db #0x00	; 0
	.db #0x00	; 0
	.db #0x00	; 0
	.db #0x00	; 0
	.db #0x18	; 24
	.db #0x18	; 24
	.db #0x3f	; 63
	.db #0x3f	; 63
	.db #0x39	; 57	'9'
	.db #0x3f	; 63
	.db #0x64	; 100	'd'
	.db #0x7f	; 127
	.db #0x63	; 99	'c'
	.db #0x7f	; 127
	.db #0xc3	; 195
	.db #0xff	; 255
	.db #0xc7	; 199
	.db #0xff	; 255
	.db #0xef	; 239
	.db #0xff	; 255
	.db #0x47	; 71	'G'
	.db #0x7f	; 127
	.db #0x3f	; 63
	.db #0x3f	; 63
	.db #0x0f	; 15
	.db #0x0f	; 15
	.db #0x01	; 1
	.db #0x01	; 1
	.db #0x00	; 0
	.db #0x00	; 0
	.db #0x00	; 0
	.db #0x00	; 0
	.db #0x00	; 0
	.db #0x00	; 0
	.db #0x00	; 0
	.db #0x00	; 0
	.db #0x00	; 0
	.db #0x00	; 0
	.db #0x00	; 0
	.db #0x00	; 0
	.db #0x80	; 128
	.db #0x80	; 128
	.db #0xe0	; 224
	.db #0xe0	; 224
	.db #0xfc	; 252
	.db #0xfc	; 252
	.db #0xde	; 222
	.db #0xfe	; 254
	.db #0x85	; 133
	.db #0xff	; 255
	.db #0x8f	; 143
	.db #0xff	; 255
	.db #0x0e	; 14
	.db #0xfe	; 254
	.db #0x1e	; 30
	.db #0xfe	; 254
	.db #0x9c	; 156
	.db #0xfc	; 252
	.db #0xfc	; 252
	.db #0xfc	; 252
	.db #0x68	; 104	'h'
	.db #0x78	; 120	'x'
	.db #0x38	; 56	'8'
	.db #0x38	; 56	'8'
	.db #0x00	; 0
	.db #0x00	; 0
	.db #0x04	; 4
	.db #0x04	; 4
	.db #0x0f	; 15
	.db #0x0f	; 15
	.db #0x1b	; 27
	.db #0x1f	; 31
	.db #0x32	; 50	'2'
	.db #0x3f	; 63
	.db #0x60	; 96
	.db #0x7f	; 127
	.db #0xc1	; 193
	.db #0xff	; 255
	.db #0x71	; 113	'q'
	.db #0x7f	; 127
	.db #0x67	; 103	'g'
	.db #0x7f	; 127
	.db #0x37	; 55	'7'
	.db #0x3f	; 63
	.db #0x1f	; 31
	.db #0x1f	; 31
	.db #0x0e	; 14
	.db #0x0f	; 15
	.db #0x03	; 3
	.db #0x03	; 3
	.db #0x01	; 1
	.db #0x01	; 1
	.db #0x00	; 0
	.db #0x00	; 0
	.db #0x00	; 0
	.db #0x00	; 0
	.db #0x00	; 0
	.db #0x00	; 0
	.db #0x00	; 0
	.db #0x00	; 0
	.db #0x00	; 0
	.db #0x00	; 0
	.db #0x80	; 128
	.db #0x80	; 128
	.db #0xc0	; 192
	.db #0xc0	; 192
	.db #0x60	; 96
	.db #0xe0	; 224
	.db #0xe0	; 224
	.db #0xe0	; 224
	.db #0xf0	; 240
	.db #0xf0	; 240
	.db #0xd8	; 216
	.db #0xf8	; 248
	.db #0x8e	; 142
	.db #0xfe	; 254
	.db #0x07	; 7
	.db #0xff	; 255
	.db #0x0d	; 13
	.db #0xff	; 255
	.db #0x1f	; 31
	.db #0xff	; 255
	.db #0xbe	; 190
	.db #0xfe	; 254
	.db #0xfc	; 252
	.db #0xfc	; 252
	.db #0xd8	; 216
	.db #0xf8	; 248
	.db #0x70	; 112	'p'
	.db #0x70	; 112	'p'
	.db #0x03	; 3
	.db #0x03	; 3
	.db #0x0f	; 15
	.db #0x0f	; 15
	.db #0x3c	; 60
	.db #0x3f	; 63
	.db #0x70	; 112	'p'
	.db #0x7f	; 127
	.db #0x70	; 112	'p'
	.db #0x7f	; 127
	.db #0x29	; 41
	.db #0x3f	; 63
	.db #0x27	; 39
	.db #0x3f	; 63
	.db #0x37	; 55	'7'
	.db #0x3f	; 63
	.db #0x1f	; 31
	.db #0x1f	; 31
	.db #0x0e	; 14
	.db #0x0f	; 15
	.db #0x0c	; 12
	.db #0x0f	; 15
	.db #0x06	; 6
	.db #0x07	; 7
	.db #0x06	; 6
	.db #0x07	; 7
	.db #0x07	; 7
	.db #0x07	; 7
	.db #0x02	; 2
	.db #0x03	; 3
	.db #0x01	; 1
	.db #0x01	; 1
	.db #0x80	; 128
	.db #0x80	; 128
	.db #0xc0	; 192
	.db #0xc0	; 192
	.db #0xa0	; 160
	.db #0xe0	; 224
	.db #0x20	; 32
	.db #0xe0	; 224
	.db #0xb0	; 176
	.db #0xf0	; 240
	.db #0xf0	; 240
	.db #0xf0	; 240
	.db #0xf0	; 240
	.db #0xf0	; 240
	.db #0xf8	; 248
	.db #0xf8	; 248
	.db #0x98	; 152
	.db #0xf8	; 248
	.db #0x0c	; 12
	.db #0xfc	; 252
	.db #0x0e	; 14
	.db #0xfe	; 254
	.db #0x3a	; 58
	.db #0xfe	; 254
	.db #0xfe	; 254
	.db #0xfe	; 254
	.db #0xf8	; 248
	.db #0xf8	; 248
	.db #0xe0	; 224
	.db #0xe0	; 224
	.db #0x80	; 128
	.db #0x80	; 128
_map:
	.db #0x00	; 0
	.db #0x00	; 0
	.db #0x00	; 0
	.db #0x00	; 0
	.db #0x00	; 0
	.db #0x1a	; 26
	.db #0x17	; 23
	.db #0x05	; 5
	.db #0x05	; 5
	.db #0x05	; 5
	.db #0x05	; 5
	.db #0x05	; 5
	.db #0x05	; 5
	.db #0x05	; 5
	.db #0x05	; 5
	.db #0x0d	; 13
	.db #0x0c	; 12
	.db #0x04	; 4
	.db #0x04	; 4
	.db #0x04	; 4
	.db #0x04	; 4
	.db #0x04	; 4
	.db #0x04	; 4
	.db #0x04	; 4
	.db #0x04	; 4
	.db #0x13	; 19
	.db #0x16	; 22
	.db #0x00	; 0
	.db #0x00	; 0
	.db #0x00	; 0
	.db #0x00	; 0
	.db #0x00	; 0
	.db #0x00	; 0
	.db #0x00	; 0
	.db #0x00	; 0
	.db #0x00	; 0
	.db #0x1a	; 26
	.db #0x18	; 24
	.db #0x01	; 1
	.db #0x01	; 1
	.db #0x01	; 1
	.db #0x01	; 1
	.db #0x01	; 1
	.db #0x01	; 1
	.db #0x01	; 1
	.db #0x01	; 1
	.db #0x01	; 1
	.db #0x09	; 9
	.db #0x08	; 8
	.db #0x2b	; 43
	.db #0x2b	; 43
	.db #0x2b	; 43
	.db #0x2b	; 43
	.db #0x2b	; 43
	.db #0x2b	; 43
	.db #0x2b	; 43
	.db #0x2b	; 43
	.db #0x2b	; 43
	.db #0x14	; 20
	.db #0x16	; 22
	.db #0x00	; 0
	.db #0x00	; 0
	.db #0x00	; 0
	.db #0x00	; 0
	.db #0x00	; 0
	.db #0x00	; 0
	.db #0x00	; 0
	.db #0x1a	; 26
	.db #0x18	; 24
	.db #0x01	; 1
	.db #0x01	; 1
	.db #0x01	; 1
	.db #0x01	; 1
	.db #0x01	; 1
	.db #0x01	; 1
	.db #0x01	; 1
	.db #0x01	; 1
	.db #0x01	; 1
	.db #0x01	; 1
	.db #0x09	; 9
	.db #0x08	; 8
	.db #0x2b	; 43
	.db #0x2b	; 43
	.db #0x2b	; 43
	.db #0x2b	; 43
	.db #0x2b	; 43
	.db #0x2b	; 43
	.db #0x2b	; 43
	.db #0x2b	; 43
	.db #0x2b	; 43
	.db #0x2b	; 43
	.db #0x14	; 20
	.db #0x16	; 22
	.db #0x00	; 0
	.db #0x00	; 0
	.db #0x00	; 0
	.db #0x00	; 0
	.db #0x00	; 0
	.db #0x1a	; 26
	.db #0x18	; 24
	.db #0x01	; 1
	.db #0x01	; 1
	.db #0x01	; 1
	.db #0x01	; 1
	.db #0x01	; 1
	.db #0x01	; 1
	.db #0x01	; 1
	.db #0x01	; 1
	.db #0x01	; 1
	.db #0x01	; 1
	.db #0x01	; 1
	.db #0x09	; 9
	.db #0x08	; 8
	.db #0x2b	; 43
	.db #0x2b	; 43
	.db #0x2b	; 43
	.db #0x2b	; 43
	.db #0x2b	; 43
	.db #0x2b	; 43
	.db #0x2b	; 43
	.db #0x2b	; 43
	.db #0x2b	; 43
	.db #0x2b	; 43
	.db #0x2b	; 43
	.db #0x14	; 20
	.db #0x16	; 22
	.db #0x00	; 0
	.db #0x00	; 0
	.db #0x00	; 0
	.db #0x1a	; 26
	.db #0x18	; 24
	.db #0x01	; 1
	.db #0x01	; 1
	.db #0x01	; 1
	.db #0x01	; 1
	.db #0x01	; 1
	.db #0x01	; 1
	.db #0x01	; 1
	.db #0x01	; 1
	.db #0x01	; 1
	.db #0x01	; 1
	.db #0x01	; 1
	.db #0x01	; 1
	.db #0x09	; 9
	.db #0x08	; 8
	.db #0x2b	; 43
	.db #0x2b	; 43
	.db #0x2b	; 43
	.db #0x2b	; 43
	.db #0x2b	; 43
	.db #0x2b	; 43
	.db #0x2b	; 43
	.db #0x2b	; 43
	.db #0x2b	; 43
	.db #0x2b	; 43
	.db #0x2b	; 43
	.db #0x2b	; 43
	.db #0x14	; 20
	.db #0x16	; 22
	.db #0x00	; 0
	.db #0x00	; 0
	.db #0x19	; 25
	.db #0x01	; 1
	.db #0x01	; 1
	.db #0x01	; 1
	.db #0x01	; 1
	.db #0x01	; 1
	.db #0x01	; 1
	.db #0x01	; 1
	.db #0x01	; 1
	.db #0x01	; 1
	.db #0x01	; 1
	.db #0x01	; 1
	.db #0x01	; 1
	.db #0x01	; 1
	.db #0x09	; 9
	.db #0x08	; 8
	.db #0x2b	; 43
	.db #0x2b	; 43
	.db #0x2b	; 43
	.db #0x2b	; 43
	.db #0x2b	; 43
	.db #0x2b	; 43
	.db #0x2b	; 43
	.db #0x2b	; 43
	.db #0x2b	; 43
	.db #0x2b	; 43
	.db #0x2b	; 43
	.db #0x2b	; 43
	.db #0x2b	; 43
	.db #0x15	; 21
	.db #0x00	; 0
	.db #0x00	; 0
	.db #0x0e	; 14
	.db #0x01	; 1
	.db #0x01	; 1
	.db #0x01	; 1
	.db #0x01	; 1
	.db #0x01	; 1
	.db #0x01	; 1
	.db #0x01	; 1
	.db #0x01	; 1
	.db #0x01	; 1
	.db #0x01	; 1
	.db #0x01	; 1
	.db #0x01	; 1
	.db #0x01	; 1
	.db #0x09	; 9
	.db #0x08	; 8
	.db #0x2b	; 43
	.db #0x2b	; 43
	.db #0x2b	; 43
	.db #0x2b	; 43
	.db #0x2b	; 43
	.db #0x2b	; 43
	.db #0x2b	; 43
	.db #0x2b	; 43
	.db #0x2b	; 43
	.db #0x2b	; 43
	.db #0x2b	; 43
	.db #0x2b	; 43
	.db #0x2b	; 43
	.db #0x06	; 6
	.db #0x00	; 0
	.db #0x00	; 0
	.db #0x0e	; 14
	.db #0x01	; 1
	.db #0x01	; 1
	.db #0x01	; 1
	.db #0x01	; 1
	.db #0x01	; 1
	.db #0x01	; 1
	.db #0x01	; 1
	.db #0x01	; 1
	.db #0x01	; 1
	.db #0x01	; 1
	.db #0x01	; 1
	.db #0x01	; 1
	.db #0x01	; 1
	.db #0x09	; 9
	.db #0x08	; 8
	.db #0x2b	; 43
	.db #0x2b	; 43
	.db #0x2b	; 43
	.db #0x2b	; 43
	.db #0x2b	; 43
	.db #0x2b	; 43
	.db #0x2b	; 43
	.db #0x2b	; 43
	.db #0x2b	; 43
	.db #0x2b	; 43
	.db #0x2b	; 43
	.db #0x2b	; 43
	.db #0x2b	; 43
	.db #0x06	; 6
	.db #0x00	; 0
	.db #0x24	; 36
	.db #0x20	; 32
	.db #0x01	; 1
	.db #0x01	; 1
	.db #0x01	; 1
	.db #0x01	; 1
	.db #0x01	; 1
	.db #0x01	; 1
	.db #0x01	; 1
	.db #0x01	; 1
	.db #0x01	; 1
	.db #0x01	; 1
	.db #0x01	; 1
	.db #0x01	; 1
	.db #0x01	; 1
	.db #0x09	; 9
	.db #0x08	; 8
	.db #0x2b	; 43
	.db #0x2b	; 43
	.db #0x2b	; 43
	.db #0x2b	; 43
	.db #0x2b	; 43
	.db #0x2b	; 43
	.db #0x2b	; 43
	.db #0x2b	; 43
	.db #0x2b	; 43
	.db #0x2b	; 43
	.db #0x2b	; 43
	.db #0x2b	; 43
	.db #0x2b	; 43
	.db #0x26	; 38
	.db #0x2a	; 42
	.db #0x23	; 35
	.db #0x21	; 33
	.db #0x01	; 1
	.db #0x01	; 1
	.db #0x01	; 1
	.db #0x01	; 1
	.db #0x01	; 1
	.db #0x01	; 1
	.db #0x01	; 1
	.db #0x01	; 1
	.db #0x01	; 1
	.db #0x01	; 1
	.db #0x01	; 1
	.db #0x01	; 1
	.db #0x01	; 1
	.db #0x09	; 9
	.db #0x08	; 8
	.db #0x2b	; 43
	.db #0x2b	; 43
	.db #0x2b	; 43
	.db #0x2b	; 43
	.db #0x2b	; 43
	.db #0x2b	; 43
	.db #0x2b	; 43
	.db #0x2b	; 43
	.db #0x2b	; 43
	.db #0x2b	; 43
	.db #0x2b	; 43
	.db #0x2b	; 43
	.db #0x2b	; 43
	.db #0x27	; 39
	.db #0x29	; 41
	.db #0x23	; 35
	.db #0x21	; 33
	.db #0x01	; 1
	.db #0x01	; 1
	.db #0x01	; 1
	.db #0x01	; 1
	.db #0x01	; 1
	.db #0x01	; 1
	.db #0x01	; 1
	.db #0x01	; 1
	.db #0x01	; 1
	.db #0x01	; 1
	.db #0x01	; 1
	.db #0x01	; 1
	.db #0x01	; 1
	.db #0x09	; 9
	.db #0x08	; 8
	.db #0x2b	; 43
	.db #0x2b	; 43
	.db #0x2b	; 43
	.db #0x2b	; 43
	.db #0x2b	; 43
	.db #0x2b	; 43
	.db #0x2b	; 43
	.db #0x2b	; 43
	.db #0x2b	; 43
	.db #0x2b	; 43
	.db #0x2b	; 43
	.db #0x2b	; 43
	.db #0x2b	; 43
	.db #0x27	; 39
	.db #0x29	; 41
	.db #0x23	; 35
	.db #0x21	; 33
	.db #0x01	; 1
	.db #0x01	; 1
	.db #0x01	; 1
	.db #0x01	; 1
	.db #0x01	; 1
	.db #0x01	; 1
	.db #0x01	; 1
	.db #0x01	; 1
	.db #0x01	; 1
	.db #0x01	; 1
	.db #0x01	; 1
	.db #0x01	; 1
	.db #0x01	; 1
	.db #0x09	; 9
	.db #0x08	; 8
	.db #0x2b	; 43
	.db #0x2b	; 43
	.db #0x2b	; 43
	.db #0x2b	; 43
	.db #0x2b	; 43
	.db #0x2b	; 43
	.db #0x2b	; 43
	.db #0x2b	; 43
	.db #0x2b	; 43
	.db #0x2b	; 43
	.db #0x2b	; 43
	.db #0x2b	; 43
	.db #0x2b	; 43
	.db #0x27	; 39
	.db #0x29	; 41
	.db #0x22	; 34
	.db #0x1f	; 31
	.db #0x01	; 1
	.db #0x01	; 1
	.db #0x01	; 1
	.db #0x01	; 1
	.db #0x01	; 1
	.db #0x01	; 1
	.db #0x01	; 1
	.db #0x01	; 1
	.db #0x01	; 1
	.db #0x01	; 1
	.db #0x01	; 1
	.db #0x01	; 1
	.db #0x01	; 1
	.db #0x09	; 9
	.db #0x08	; 8
	.db #0x2b	; 43
	.db #0x2b	; 43
	.db #0x2b	; 43
	.db #0x2b	; 43
	.db #0x2b	; 43
	.db #0x2b	; 43
	.db #0x2b	; 43
	.db #0x2b	; 43
	.db #0x2b	; 43
	.db #0x2b	; 43
	.db #0x2b	; 43
	.db #0x2b	; 43
	.db #0x2b	; 43
	.db #0x25	; 37
	.db #0x28	; 40
	.db #0x00	; 0
	.db #0x0e	; 14
	.db #0x01	; 1
	.db #0x01	; 1
	.db #0x01	; 1
	.db #0x01	; 1
	.db #0x01	; 1
	.db #0x01	; 1
	.db #0x01	; 1
	.db #0x01	; 1
	.db #0x01	; 1
	.db #0x01	; 1
	.db #0x01	; 1
	.db #0x01	; 1
	.db #0x01	; 1
	.db #0x09	; 9
	.db #0x08	; 8
	.db #0x2b	; 43
	.db #0x2b	; 43
	.db #0x2b	; 43
	.db #0x2b	; 43
	.db #0x2b	; 43
	.db #0x2b	; 43
	.db #0x2b	; 43
	.db #0x2b	; 43
	.db #0x2b	; 43
	.db #0x2b	; 43
	.db #0x2b	; 43
	.db #0x2b	; 43
	.db #0x2b	; 43
	.db #0x06	; 6
	.db #0x00	; 0
	.db #0x00	; 0
	.db #0x0e	; 14
	.db #0x01	; 1
	.db #0x01	; 1
	.db #0x01	; 1
	.db #0x01	; 1
	.db #0x01	; 1
	.db #0x01	; 1
	.db #0x01	; 1
	.db #0x01	; 1
	.db #0x01	; 1
	.db #0x01	; 1
	.db #0x01	; 1
	.db #0x01	; 1
	.db #0x01	; 1
	.db #0x09	; 9
	.db #0x08	; 8
	.db #0x2b	; 43
	.db #0x2b	; 43
	.db #0x2b	; 43
	.db #0x2b	; 43
	.db #0x2b	; 43
	.db #0x2b	; 43
	.db #0x2b	; 43
	.db #0x2b	; 43
	.db #0x2b	; 43
	.db #0x2b	; 43
	.db #0x2b	; 43
	.db #0x2b	; 43
	.db #0x2b	; 43
	.db #0x06	; 6
	.db #0x00	; 0
	.db #0x00	; 0
	.db #0x1d	; 29
	.db #0x01	; 1
	.db #0x01	; 1
	.db #0x01	; 1
	.db #0x01	; 1
	.db #0x01	; 1
	.db #0x01	; 1
	.db #0x01	; 1
	.db #0x01	; 1
	.db #0x01	; 1
	.db #0x01	; 1
	.db #0x01	; 1
	.db #0x01	; 1
	.db #0x01	; 1
	.db #0x09	; 9
	.db #0x08	; 8
	.db #0x2b	; 43
	.db #0x2b	; 43
	.db #0x2b	; 43
	.db #0x2b	; 43
	.db #0x2b	; 43
	.db #0x2b	; 43
	.db #0x2b	; 43
	.db #0x2b	; 43
	.db #0x2b	; 43
	.db #0x2b	; 43
	.db #0x2b	; 43
	.db #0x2b	; 43
	.db #0x2b	; 43
	.db #0x11	; 17
	.db #0x00	; 0
	.db #0x00	; 0
	.db #0x1e	; 30
	.db #0x1c	; 28
	.db #0x01	; 1
	.db #0x01	; 1
	.db #0x01	; 1
	.db #0x01	; 1
	.db #0x01	; 1
	.db #0x01	; 1
	.db #0x01	; 1
	.db #0x01	; 1
	.db #0x01	; 1
	.db #0x01	; 1
	.db #0x01	; 1
	.db #0x01	; 1
	.db #0x09	; 9
	.db #0x08	; 8
	.db #0x2b	; 43
	.db #0x2b	; 43
	.db #0x2b	; 43
	.db #0x2b	; 43
	.db #0x2b	; 43
	.db #0x2b	; 43
	.db #0x2b	; 43
	.db #0x2b	; 43
	.db #0x2b	; 43
	.db #0x2b	; 43
	.db #0x2b	; 43
	.db #0x2b	; 43
	.db #0x10	; 16
	.db #0x12	; 18
	.db #0x00	; 0
	.db #0x00	; 0
	.db #0x00	; 0
	.db #0x1e	; 30
	.db #0x1c	; 28
	.db #0x01	; 1
	.db #0x01	; 1
	.db #0x01	; 1
	.db #0x01	; 1
	.db #0x01	; 1
	.db #0x01	; 1
	.db #0x01	; 1
	.db #0x01	; 1
	.db #0x01	; 1
	.db #0x01	; 1
	.db #0x01	; 1
	.db #0x09	; 9
	.db #0x08	; 8
	.db #0x2b	; 43
	.db #0x2b	; 43
	.db #0x2b	; 43
	.db #0x2b	; 43
	.db #0x2b	; 43
	.db #0x2b	; 43
	.db #0x2b	; 43
	.db #0x2b	; 43
	.db #0x2b	; 43
	.db #0x2b	; 43
	.db #0x2b	; 43
	.db #0x10	; 16
	.db #0x12	; 18
	.db #0x00	; 0
	.db #0x00	; 0
	.db #0x00	; 0
	.db #0x00	; 0
	.db #0x00	; 0
	.db #0x1e	; 30
	.db #0x1c	; 28
	.db #0x01	; 1
	.db #0x01	; 1
	.db #0x01	; 1
	.db #0x01	; 1
	.db #0x01	; 1
	.db #0x01	; 1
	.db #0x01	; 1
	.db #0x01	; 1
	.db #0x01	; 1
	.db #0x01	; 1
	.db #0x09	; 9
	.db #0x08	; 8
	.db #0x2b	; 43
	.db #0x2b	; 43
	.db #0x2b	; 43
	.db #0x2b	; 43
	.db #0x2b	; 43
	.db #0x2b	; 43
	.db #0x2b	; 43
	.db #0x2b	; 43
	.db #0x2b	; 43
	.db #0x2b	; 43
	.db #0x10	; 16
	.db #0x12	; 18
	.db #0x00	; 0
	.db #0x00	; 0
	.db #0x00	; 0
	.db #0x00	; 0
	.db #0x00	; 0
	.db #0x00	; 0
	.db #0x00	; 0
	.db #0x1e	; 30
	.db #0x1c	; 28
	.db #0x01	; 1
	.db #0x01	; 1
	.db #0x01	; 1
	.db #0x01	; 1
	.db #0x01	; 1
	.db #0x01	; 1
	.db #0x01	; 1
	.db #0x01	; 1
	.db #0x01	; 1
	.db #0x09	; 9
	.db #0x08	; 8
	.db #0x2b	; 43
	.db #0x2b	; 43
	.db #0x2b	; 43
	.db #0x2b	; 43
	.db #0x2b	; 43
	.db #0x2b	; 43
	.db #0x2b	; 43
	.db #0x2b	; 43
	.db #0x2b	; 43
	.db #0x10	; 16
	.db #0x12	; 18
	.db #0x00	; 0
	.db #0x00	; 0
	.db #0x00	; 0
	.db #0x00	; 0
	.db #0x00	; 0
	.db #0x00	; 0
	.db #0x00	; 0
	.db #0x00	; 0
	.db #0x00	; 0
	.db #0x1e	; 30
	.db #0x1b	; 27
	.db #0x03	; 3
	.db #0x03	; 3
	.db #0x03	; 3
	.db #0x03	; 3
	.db #0x03	; 3
	.db #0x03	; 3
	.db #0x03	; 3
	.db #0x03	; 3
	.db #0x0b	; 11
	.db #0x0a	; 10
	.db #0x02	; 2
	.db #0x02	; 2
	.db #0x02	; 2
	.db #0x02	; 2
	.db #0x02	; 2
	.db #0x02	; 2
	.db #0x02	; 2
	.db #0x02	; 2
	.db #0x0f	; 15
	.db #0x12	; 18
	.db #0x00	; 0
	.db #0x00	; 0
	.db #0x00	; 0
	.db #0x00	; 0
	.db #0x00	; 0
_ball_sprite:
	.db #0x07	; 7
	.db #0x07	; 7
	.db #0x1f	; 31
	.db #0x18	; 24
	.db #0x3f	; 63
	.db #0x20	; 32
	.db #0x7f	; 127
	.db #0x40	; 64
	.db #0x7f	; 127
	.db #0x40	; 64
	.db #0xff	; 255
	.db #0x80	; 128
	.db #0xff	; 255
	.db #0x80	; 128
	.db #0x8f	; 143
	.db #0xf0	; 240
	.db #0x87	; 135
	.db #0xf8	; 248
	.db #0x83	; 131
	.db #0xfc	; 252
	.db #0x81	; 129
	.db #0xfe	; 254
	.db #0x41	; 65	'A'
	.db #0x7e	; 126
	.db #0x40	; 64
	.db #0x7f	; 127
	.db #0x20	; 32
	.db #0x3f	; 63
	.db #0x18	; 24
	.db #0x1f	; 31
	.db #0x07	; 7
	.db #0x07	; 7
	.db #0xe0	; 224
	.db #0xe0	; 224
	.db #0x18	; 24
	.db #0xf8	; 248
	.db #0x04	; 4
	.db #0xfc	; 252
	.db #0x02	; 2
	.db #0xfe	; 254
	.db #0x02	; 2
	.db #0xfe	; 254
	.db #0x81	; 129
	.db #0x7f	; 127
	.db #0xc1	; 193
	.db #0x3f	; 63
	.db #0xc1	; 193
	.db #0x3f	; 63
	.db #0xe1	; 225
	.db #0x1f	; 31
	.db #0xf1	; 241
	.db #0x0f	; 15
	.db #0xfd	; 253
	.db #0x03	; 3
	.db #0xfe	; 254
	.db #0x02	; 2
	.db #0xfe	; 254
	.db #0x02	; 2
	.db #0xfc	; 252
	.db #0x04	; 4
	.db #0xf8	; 248
	.db #0x18	; 24
	.db #0xe0	; 224
	.db #0xe0	; 224
_bkg_tiles:
	.db #0x00	; 0
	.db #0x00	; 0
	.db #0x00	; 0
	.db #0x00	; 0
	.db #0x00	; 0
	.db #0x00	; 0
	.db #0x00	; 0
	.db #0x00	; 0
	.db #0x00	; 0
	.db #0x00	; 0
	.db #0x00	; 0
	.db #0x00	; 0
	.db #0x00	; 0
	.db #0x00	; 0
	.db #0x00	; 0
	.db #0x00	; 0
	.db #0x00	; 0
	.db #0xaa	; 170
	.db #0x00	; 0
	.db #0x55	; 85	'U'
	.db #0x00	; 0
	.db #0xaa	; 170
	.db #0x00	; 0
	.db #0x55	; 85	'U'
	.db #0x00	; 0
	.db #0xaa	; 170
	.db #0x00	; 0
	.db #0x55	; 85	'U'
	.db #0x00	; 0
	.db #0xaa	; 170
	.db #0x00	; 0
	.db #0x55	; 85	'U'
	.db #0xaa	; 170
	.db #0x00	; 0
	.db #0x55	; 85	'U'
	.db #0x00	; 0
	.db #0xff	; 255
	.db #0xff	; 255
	.db #0xff	; 255
	.db #0xff	; 255
	.db #0xff	; 255
	.db #0xff	; 255
	.db #0xff	; 255
	.db #0xff	; 255
	.db #0xff	; 255
	.db #0xff	; 255
	.db #0xff	; 255
	.db #0xff	; 255
	.db #0x00	; 0
	.db #0xaa	; 170
	.db #0x00	; 0
	.db #0x55	; 85	'U'
	.db #0xff	; 255
	.db #0xff	; 255
	.db #0xff	; 255
	.db #0xff	; 255
	.db #0xff	; 255
	.db #0xff	; 255
	.db #0xff	; 255
	.db #0xff	; 255
	.db #0xff	; 255
	.db #0xff	; 255
	.db #0xff	; 255
	.db #0xff	; 255
	.db #0xff	; 255
	.db #0xff	; 255
	.db #0xff	; 255
	.db #0xff	; 255
	.db #0xff	; 255
	.db #0xff	; 255
	.db #0xff	; 255
	.db #0xff	; 255
	.db #0xff	; 255
	.db #0xff	; 255
	.db #0xff	; 255
	.db #0xff	; 255
	.db #0xaa	; 170
	.db #0x00	; 0
	.db #0x55	; 85	'U'
	.db #0x00	; 0
	.db #0xff	; 255
	.db #0xff	; 255
	.db #0xff	; 255
	.db #0xff	; 255
	.db #0xff	; 255
	.db #0xff	; 255
	.db #0xff	; 255
	.db #0xff	; 255
	.db #0xff	; 255
	.db #0xff	; 255
	.db #0xff	; 255
	.db #0xff	; 255
	.db #0x00	; 0
	.db #0xaa	; 170
	.db #0x00	; 0
	.db #0x55	; 85	'U'
	.db #0xbf	; 191
	.db #0x3f	; 63
	.db #0x7f	; 127
	.db #0x3f	; 63
	.db #0xbf	; 191
	.db #0x3f	; 63
	.db #0x7f	; 127
	.db #0x3f	; 63
	.db #0xbf	; 191
	.db #0x3f	; 63
	.db #0x7f	; 127
	.db #0x3f	; 63
	.db #0xbf	; 191
	.db #0x3f	; 63
	.db #0x7f	; 127
	.db #0x3f	; 63
	.db #0x3f	; 63
	.db #0xbf	; 191
	.db #0x3f	; 63
	.db #0x7f	; 127
	.db #0x3f	; 63
	.db #0xbf	; 191
	.db #0x3f	; 63
	.db #0x7f	; 127
	.db #0x3f	; 63
	.db #0xbf	; 191
	.db #0x3f	; 63
	.db #0x7f	; 127
	.db #0x3f	; 63
	.db #0xbf	; 191
	.db #0x3f	; 63
	.db #0x7f	; 127
	.db #0xea	; 234
	.db #0xc0	; 192
	.db #0xd5	; 213
	.db #0xc0	; 192
	.db #0xea	; 234
	.db #0xc0	; 192
	.db #0xd5	; 213
	.db #0xc0	; 192
	.db #0xea	; 234
	.db #0xc0	; 192
	.db #0xd5	; 213
	.db #0xc0	; 192
	.db #0xea	; 234
	.db #0xc0	; 192
	.db #0xd5	; 213
	.db #0xc0	; 192
	.db #0x03	; 3
	.db #0xab	; 171
	.db #0x03	; 3
	.db #0x57	; 87	'W'
	.db #0x03	; 3
	.db #0xab	; 171
	.db #0x03	; 3
	.db #0x57	; 87	'W'
	.db #0x03	; 3
	.db #0xab	; 171
	.db #0x03	; 3
	.db #0x57	; 87	'W'
	.db #0x03	; 3
	.db #0xab	; 171
	.db #0x03	; 3
	.db #0x57	; 87	'W'
	.db #0xea	; 234
	.db #0xc0	; 192
	.db #0xd5	; 213
	.db #0xc0	; 192
	.db #0xff	; 255
	.db #0xff	; 255
	.db #0xff	; 255
	.db #0xff	; 255
	.db #0xff	; 255
	.db #0xff	; 255
	.db #0xff	; 255
	.db #0xff	; 255
	.db #0xff	; 255
	.db #0xff	; 255
	.db #0xff	; 255
	.db #0xff	; 255
	.db #0x03	; 3
	.db #0xab	; 171
	.db #0x03	; 3
	.db #0x57	; 87	'W'
	.db #0xff	; 255
	.db #0xff	; 255
	.db #0xff	; 255
	.db #0xff	; 255
	.db #0xff	; 255
	.db #0xff	; 255
	.db #0xff	; 255
	.db #0xff	; 255
	.db #0xff	; 255
	.db #0xff	; 255
	.db #0xff	; 255
	.db #0xff	; 255
	.db #0xff	; 255
	.db #0xff	; 255
	.db #0xff	; 255
	.db #0xff	; 255
	.db #0xff	; 255
	.db #0xff	; 255
	.db #0xff	; 255
	.db #0xff	; 255
	.db #0xff	; 255
	.db #0xff	; 255
	.db #0xff	; 255
	.db #0xff	; 255
	.db #0xea	; 234
	.db #0xc0	; 192
	.db #0xd5	; 213
	.db #0xc0	; 192
	.db #0xff	; 255
	.db #0xff	; 255
	.db #0xff	; 255
	.db #0xff	; 255
	.db #0xff	; 255
	.db #0xff	; 255
	.db #0xff	; 255
	.db #0xff	; 255
	.db #0xff	; 255
	.db #0xff	; 255
	.db #0xff	; 255
	.db #0xff	; 255
	.db #0x03	; 3
	.db #0xab	; 171
	.db #0x03	; 3
	.db #0x57	; 87	'W'
	.db #0xfc	; 252
	.db #0xfe	; 254
	.db #0xfc	; 252
	.db #0xfd	; 253
	.db #0xfc	; 252
	.db #0xfe	; 254
	.db #0xfc	; 252
	.db #0xfd	; 253
	.db #0xfc	; 252
	.db #0xfe	; 254
	.db #0xfc	; 252
	.db #0xfd	; 253
	.db #0xfc	; 252
	.db #0xfe	; 254
	.db #0xfc	; 252
	.db #0xfd	; 253
	.db #0xab	; 171
	.db #0x01	; 1
	.db #0x57	; 87	'W'
	.db #0x03	; 3
	.db #0xff	; 255
	.db #0xff	; 255
	.db #0xff	; 255
	.db #0xff	; 255
	.db #0xff	; 255
	.db #0xff	; 255
	.db #0xff	; 255
	.db #0xff	; 255
	.db #0xff	; 255
	.db #0xff	; 255
	.db #0xff	; 255
	.db #0xff	; 255
	.db #0xab	; 171
	.db #0x01	; 1
	.db #0x57	; 87	'W'
	.db #0x03	; 3
	.db #0xaf	; 175
	.db #0x07	; 7
	.db #0x5f	; 95
	.db #0x0f	; 15
	.db #0xbf	; 191
	.db #0x1f	; 31
	.db #0x7f	; 127
	.db #0x3f	; 63
	.db #0xff	; 255
	.db #0x7f	; 127
	.db #0xff	; 255
	.db #0xff	; 255
	.db #0xbf	; 191
	.db #0x3f	; 63
	.db #0x7f	; 127
	.db #0x3f	; 63
	.db #0xbf	; 191
	.db #0x3f	; 63
	.db #0x7f	; 127
	.db #0x3f	; 63
	.db #0xbf	; 191
	.db #0x3f	; 63
	.db #0x7f	; 127
	.db #0x3f	; 63
	.db #0xff	; 255
	.db #0x7f	; 127
	.db #0xff	; 255
	.db #0xff	; 255
	.db #0xfe	; 254
	.db #0xfe	; 254
	.db #0xfc	; 252
	.db #0xfc	; 252
	.db #0xf8	; 248
	.db #0xf8	; 248
	.db #0xf0	; 240
	.db #0xf0	; 240
	.db #0xe0	; 224
	.db #0xe0	; 224
	.db #0xc0	; 192
	.db #0xc0	; 192
	.db #0x80	; 128
	.db #0x80	; 128
	.db #0x00	; 0
	.db #0x00	; 0
	.db #0xff	; 255
	.db #0xff	; 255
	.db #0xff	; 255
	.db #0xff	; 255
	.db #0xff	; 255
	.db #0xff	; 255
	.db #0xff	; 255
	.db #0xff	; 255
	.db #0xff	; 255
	.db #0xff	; 255
	.db #0xff	; 255
	.db #0xff	; 255
	.db #0x57	; 87	'W'
	.db #0x03	; 3
	.db #0xab	; 171
	.db #0x01	; 1
	.db #0xff	; 255
	.db #0xff	; 255
	.db #0x7f	; 127
	.db #0x7f	; 127
	.db #0xbf	; 191
	.db #0x3f	; 63
	.db #0x5f	; 95
	.db #0x1f	; 31
	.db #0xaf	; 175
	.db #0x0f	; 15
	.db #0x57	; 87	'W'
	.db #0x07	; 7
	.db #0xab	; 171
	.db #0x03	; 3
	.db #0x55	; 85	'U'
	.db #0x01	; 1
	.db #0xff	; 255
	.db #0xff	; 255
	.db #0x7f	; 127
	.db #0x7f	; 127
	.db #0xbf	; 191
	.db #0x3f	; 63
	.db #0x7f	; 127
	.db #0x3f	; 63
	.db #0xbf	; 191
	.db #0x3f	; 63
	.db #0x7f	; 127
	.db #0x3f	; 63
	.db #0xbf	; 191
	.db #0x3f	; 63
	.db #0x7f	; 127
	.db #0x3f	; 63
	.db #0x00	; 0
	.db #0x00	; 0
	.db #0x80	; 128
	.db #0x80	; 128
	.db #0xc0	; 192
	.db #0xc0	; 192
	.db #0xe0	; 224
	.db #0xe0	; 224
	.db #0xf0	; 240
	.db #0xf0	; 240
	.db #0xf8	; 248
	.db #0xf8	; 248
	.db #0xfc	; 252
	.db #0xfc	; 252
	.db #0xfe	; 254
	.db #0xfe	; 254
	.db #0xff	; 255
	.db #0xff	; 255
	.db #0xff	; 255
	.db #0xff	; 255
	.db #0xff	; 255
	.db #0xff	; 255
	.db #0xff	; 255
	.db #0xff	; 255
	.db #0xff	; 255
	.db #0xff	; 255
	.db #0xff	; 255
	.db #0xff	; 255
	.db #0xc0	; 192
	.db #0xea	; 234
	.db #0x80	; 128
	.db #0xd5	; 213
	.db #0xff	; 255
	.db #0xff	; 255
	.db #0xfe	; 254
	.db #0xff	; 255
	.db #0xfc	; 252
	.db #0xfe	; 254
	.db #0xf8	; 248
	.db #0xfd	; 253
	.db #0xf0	; 240
	.db #0xfa	; 250
	.db #0xe0	; 224
	.db #0xf5	; 245
	.db #0xc0	; 192
	.db #0xea	; 234
	.db #0x80	; 128
	.db #0xd5	; 213
	.db #0xff	; 255
	.db #0xff	; 255
	.db #0xfe	; 254
	.db #0xff	; 255
	.db #0xfc	; 252
	.db #0xfe	; 254
	.db #0xfc	; 252
	.db #0xfd	; 253
	.db #0xfc	; 252
	.db #0xfe	; 254
	.db #0xfc	; 252
	.db #0xfd	; 253
	.db #0xfc	; 252
	.db #0xfe	; 254
	.db #0xfc	; 252
	.db #0xfd	; 253
	.db #0x00	; 0
	.db #0x00	; 0
	.db #0x01	; 1
	.db #0x01	; 1
	.db #0x03	; 3
	.db #0x03	; 3
	.db #0x07	; 7
	.db #0x07	; 7
	.db #0x0f	; 15
	.db #0x0f	; 15
	.db #0x1f	; 31
	.db #0x1f	; 31
	.db #0x3f	; 63
	.db #0x3f	; 63
	.db #0x7f	; 127
	.db #0x7f	; 127
	.db #0x80	; 128
	.db #0xaa	; 170
	.db #0xc0	; 192
	.db #0xd5	; 213
	.db #0xff	; 255
	.db #0xff	; 255
	.db #0xff	; 255
	.db #0xff	; 255
	.db #0xff	; 255
	.db #0xff	; 255
	.db #0xff	; 255
	.db #0xff	; 255
	.db #0xff	; 255
	.db #0xff	; 255
	.db #0xff	; 255
	.db #0xff	; 255
	.db #0x80	; 128
	.db #0xaa	; 170
	.db #0xc0	; 192
	.db #0xd5	; 213
	.db #0xe0	; 224
	.db #0xea	; 234
	.db #0xf0	; 240
	.db #0xf5	; 245
	.db #0xf8	; 248
	.db #0xfa	; 250
	.db #0xfc	; 252
	.db #0xfd	; 253
	.db #0xfe	; 254
	.db #0xfe	; 254
	.db #0xff	; 255
	.db #0xff	; 255
	.db #0xfc	; 252
	.db #0xfe	; 254
	.db #0xfc	; 252
	.db #0xfd	; 253
	.db #0xfc	; 252
	.db #0xfe	; 254
	.db #0xfc	; 252
	.db #0xfd	; 253
	.db #0xfc	; 252
	.db #0xfe	; 254
	.db #0xfc	; 252
	.db #0xfd	; 253
	.db #0xfe	; 254
	.db #0xfe	; 254
	.db #0xff	; 255
	.db #0xff	; 255
	.db #0x7f	; 127
	.db #0x7f	; 127
	.db #0x3f	; 63
	.db #0x3f	; 63
	.db #0x1f	; 31
	.db #0x1f	; 31
	.db #0x0f	; 15
	.db #0x0f	; 15
	.db #0x07	; 7
	.db #0x07	; 7
	.db #0x03	; 3
	.db #0x03	; 3
	.db #0x01	; 1
	.db #0x01	; 1
	.db #0x00	; 0
	.db #0x00	; 0
	.db #0x0c	; 12
	.db #0xae	; 174
	.db #0x0c	; 12
	.db #0x5d	; 93
	.db #0x0c	; 12
	.db #0xae	; 174
	.db #0x0c	; 12
	.db #0x5d	; 93
	.db #0xfc	; 252
	.db #0xfe	; 254
	.db #0xfc	; 252
	.db #0xfd	; 253
	.db #0xfc	; 252
	.db #0xfe	; 254
	.db #0xfc	; 252
	.db #0xfd	; 253
	.db #0xfc	; 252
	.db #0xfe	; 254
	.db #0xfc	; 252
	.db #0xfd	; 253
	.db #0xfc	; 252
	.db #0xfe	; 254
	.db #0xfc	; 252
	.db #0xfd	; 253
	.db #0x0c	; 12
	.db #0xae	; 174
	.db #0x0c	; 12
	.db #0x5d	; 93
	.db #0x0c	; 12
	.db #0xae	; 174
	.db #0x0c	; 12
	.db #0x5d	; 93
	.db #0x0c	; 12
	.db #0xae	; 174
	.db #0x0c	; 12
	.db #0x5d	; 93
	.db #0x0c	; 12
	.db #0xae	; 174
	.db #0x0c	; 12
	.db #0x5d	; 93
	.db #0x0c	; 12
	.db #0xae	; 174
	.db #0x0c	; 12
	.db #0x5d	; 93
	.db #0x0c	; 12
	.db #0xae	; 174
	.db #0x0c	; 12
	.db #0x5d	; 93
	.db #0xf0	; 240
	.db #0xfa	; 250
	.db #0xf0	; 240
	.db #0xf5	; 245
	.db #0xf0	; 240
	.db #0xfa	; 250
	.db #0xf0	; 240
	.db #0xf5	; 245
	.db #0xff	; 255
	.db #0xff	; 255
	.db #0xff	; 255
	.db #0xff	; 255
	.db #0x7f	; 127
	.db #0x7f	; 127
	.db #0x3f	; 63
	.db #0x3f	; 63
	.db #0xf0	; 240
	.db #0xfa	; 250
	.db #0xf0	; 240
	.db #0xf5	; 245
	.db #0xf0	; 240
	.db #0xfa	; 250
	.db #0xf0	; 240
	.db #0xf5	; 245
	.db #0xf0	; 240
	.db #0xfa	; 250
	.db #0xf0	; 240
	.db #0xf5	; 245
	.db #0xf0	; 240
	.db #0xfa	; 250
	.db #0xf0	; 240
	.db #0xf5	; 245
	.db #0x3f	; 63
	.db #0x3f	; 63
	.db #0x7f	; 127
	.db #0x7f	; 127
	.db #0xff	; 255
	.db #0xff	; 255
	.db #0xff	; 255
	.db #0xff	; 255
	.db #0xf0	; 240
	.db #0xfa	; 250
	.db #0xf0	; 240
	.db #0xf5	; 245
	.db #0xf0	; 240
	.db #0xfa	; 250
	.db #0xf0	; 240
	.db #0xf5	; 245
	.db #0xba	; 186
	.db #0x30	; 48	'0'
	.db #0x75	; 117	'u'
	.db #0x30	; 48	'0'
	.db #0xba	; 186
	.db #0x30	; 48	'0'
	.db #0x75	; 117	'u'
	.db #0x30	; 48	'0'
	.db #0xbf	; 191
	.db #0x3f	; 63
	.db #0x7f	; 127
	.db #0x3f	; 63
	.db #0xbf	; 191
	.db #0x3f	; 63
	.db #0x7f	; 127
	.db #0x3f	; 63
	.db #0xbf	; 191
	.db #0x3f	; 63
	.db #0x7f	; 127
	.db #0x3f	; 63
	.db #0xbf	; 191
	.db #0x3f	; 63
	.db #0x7f	; 127
	.db #0x3f	; 63
	.db #0xba	; 186
	.db #0x30	; 48	'0'
	.db #0x75	; 117	'u'
	.db #0x30	; 48	'0'
	.db #0xba	; 186
	.db #0x30	; 48	'0'
	.db #0x75	; 117	'u'
	.db #0x30	; 48	'0'
	.db #0xba	; 186
	.db #0x30	; 48	'0'
	.db #0x75	; 117	'u'
	.db #0x30	; 48	'0'
	.db #0xba	; 186
	.db #0x30	; 48	'0'
	.db #0x75	; 117	'u'
	.db #0x30	; 48	'0'
	.db #0xba	; 186
	.db #0x30	; 48	'0'
	.db #0x75	; 117	'u'
	.db #0x30	; 48	'0'
	.db #0xba	; 186
	.db #0x30	; 48	'0'
	.db #0x75	; 117	'u'
	.db #0x30	; 48	'0'
	.db #0xaf	; 175
	.db #0x0f	; 15
	.db #0x5f	; 95
	.db #0x0f	; 15
	.db #0xaf	; 175
	.db #0x0f	; 15
	.db #0x5f	; 95
	.db #0x0f	; 15
	.db #0xff	; 255
	.db #0xff	; 255
	.db #0xff	; 255
	.db #0xff	; 255
	.db #0xfe	; 254
	.db #0xfe	; 254
	.db #0xfc	; 252
	.db #0xfc	; 252
	.db #0xaf	; 175
	.db #0x0f	; 15
	.db #0x5f	; 95
	.db #0x0f	; 15
	.db #0xaf	; 175
	.db #0x0f	; 15
	.db #0x5f	; 95
	.db #0x0f	; 15
	.db #0xaf	; 175
	.db #0x0f	; 15
	.db #0x5f	; 95
	.db #0x0f	; 15
	.db #0xaf	; 175
	.db #0x0f	; 15
	.db #0x5f	; 95
	.db #0x0f	; 15
	.db #0xfc	; 252
	.db #0xfc	; 252
	.db #0xfe	; 254
	.db #0xfe	; 254
	.db #0xff	; 255
	.db #0xff	; 255
	.db #0xff	; 255
	.db #0xff	; 255
	.db #0xaf	; 175
	.db #0x0f	; 15
	.db #0x5f	; 95
	.db #0x0f	; 15
	.db #0xaf	; 175
	.db #0x0f	; 15
	.db #0x5f	; 95
	.db #0x0f	; 15
	.db #0xaa	; 170
	.db #0x00	; 0
	.db #0x55	; 85	'U'
	.db #0x00	; 0
	.db #0xaa	; 170
	.db #0x00	; 0
	.db #0x55	; 85	'U'
	.db #0x00	; 0
	.db #0xaa	; 170
	.db #0x00	; 0
	.db #0x55	; 85	'U'
	.db #0x00	; 0
	.db #0xaa	; 170
	.db #0x00	; 0
	.db #0x55	; 85	'U'
	.db #0x00	; 0
;main.c:63: UBYTE check_collision(struct GameObject* one, struct GameObject* two) {
;	---------------------------------
; Function check_collision
; ---------------------------------
_check_collision::
	add	sp, #-16
;main.c:65: return (one->x >= two->x && one->x <= two->x + two->width) && 
	ldhl	sp,	#18
	ld	a, (hl)
	ldhl	sp,	#2
	ld	(hl), a
	ldhl	sp,	#19
	ld	a, (hl)
	ldhl	sp,	#3
	ld	(hl-), a
	ld	a, (hl+)
	ld	e, a
	ld	d, (hl)
	ld	hl, #0x0005
	add	hl, de
	ld	c, l
	ld	b, h
	ld	a, (bc)
	ldhl	sp,	#4
	ld	(hl), a
	ldhl	sp,	#20
	ld	a, (hl)
	ldhl	sp,	#0
	ld	(hl), a
	ldhl	sp,	#21
	ld	a, (hl)
	ldhl	sp,	#1
	ld	(hl), a
	pop	de
	push	de
	ld	hl, #0x0005
	add	hl, de
	ld	c, l
	ld	b, h
	ld	a, (bc)
	ldhl	sp,	#5
	ld	(hl), a
	ld	a, (hl+)
	ld	(hl+), a
	rlca
	sbc	a, a
	ld	(hl), a
	ldhl	sp,	#4
	ld	a, (hl)
	ldhl	sp,	#8
	ld	(hl+), a
	rlca
	sbc	a, a
	ld	(hl), a
;main.c:66: (one->y >= two->y && one->y <= two->y + two->height)
	ldhl	sp,#2
	ld	a, (hl+)
	ld	e, a
	ld	d, (hl)
	ld	hl, #0x0006
	add	hl, de
	push	hl
	ld	a, l
	ldhl	sp,	#12
	ld	(hl), a
	pop	hl
	ld	a, h
	ldhl	sp,	#11
	ld	(hl), a
	pop	de
	push	de
	ld	hl, #0x0006
	add	hl, de
	push	hl
	ld	a, l
	ldhl	sp,	#14
	ld	(hl), a
	pop	hl
	ld	a, h
	ldhl	sp,	#13
	ld	(hl), a
;main.c:65: return (one->x >= two->x && one->x <= two->x + two->width) && 
	ldhl	sp,	#5
	ld	a, (hl-)
	ld	e, a
	ld	d, (hl)
	ld	a, (hl+)
	sub	a, (hl)
	bit	7, e
	jr	Z, 00152$
	bit	7, d
	jr	NZ, 00153$
	cp	a, a
	jr	00153$
00152$:
	bit	7, d
	jr	Z, 00153$
	scf
00153$:
	jp	C, 00108$
	pop	de
	push	de
	ld	hl, #0x0009
	add	hl, de
	ld	c, l
	ld	b, h
	ld	a, (bc)
	ld	c, a
	rlca
	sbc	a, a
	ld	b, a
	ldhl	sp,	#6
	ld	a,	(hl+)
	ld	h, (hl)
	ld	l, a
	add	hl, bc
	ld	c, l
	ld	b, h
	ldhl	sp,	#8
	ld	a, c
	sub	a, (hl)
	inc	hl
	ld	a, b
	sbc	a, (hl)
	ld	a, b
	ld	d, a
	bit	7, (hl)
	jr	Z, 00154$
	bit	7, d
	jr	NZ, 00155$
	cp	a, a
	jr	00155$
00154$:
	bit	7, d
	jr	Z, 00155$
	scf
00155$:
	jr	C, 00108$
;main.c:66: (one->y >= two->y && one->y <= two->y + two->height)
	ldhl	sp,#10
	ld	a, (hl+)
	ld	e, a
	ld	d, (hl)
	ld	a, (de)
	ldhl	sp,	#15
	ld	(hl-), a
	dec	hl
	dec	hl
	ld	a, (hl+)
	ld	e, a
	ld	a, (hl+)
	inc	hl
	ld	d, a
	ld	a, (de)
	ld	c, a
	ld	e, c
	ld	a,(hl)
	ld	d,a
	sub	a, c
	bit	7, e
	jr	Z, 00156$
	bit	7, d
	jr	NZ, 00157$
	cp	a, a
	jr	00157$
00156$:
	bit	7, d
	jr	Z, 00157$
	scf
00157$:
	jr	C, 00108$
	ld	a, c
	rlca
	sbc	a, a
	ld	b, a
	pop	de
	push	de
	ld	hl, #0x000a
	add	hl, de
	ld	e, l
	ld	d, h
	ld	a, (de)
	ld	l, a
;	spillPairReg hl
;	spillPairReg hl
	rlca
	sbc	a, a
	ld	h, a
;	spillPairReg hl
;	spillPairReg hl
	add	hl, bc
	ld	c, l
	ld	b, h
	ldhl	sp,	#15
	ld	a, (hl-)
	ld	(hl+), a
	rlca
	sbc	a, a
	ld	(hl-), a
	ld	a, c
	sub	a, (hl)
	inc	hl
	ld	a, b
	sbc	a, (hl)
	ld	a, b
	ld	d, a
	bit	7, (hl)
	jr	Z, 00158$
	bit	7, d
	jr	NZ, 00159$
	cp	a, a
	jr	00159$
00158$:
	bit	7, d
	jr	Z, 00159$
	scf
00159$:
	jp	NC, 00104$
00108$:
;main.c:67: || (two->x >= one->x && two->x <= one->x + one->width) 
	ldhl	sp,	#4
	ld	a, (hl+)
	ld	e, a
	ld	d, (hl)
	ld	a, (hl-)
	sub	a, (hl)
	bit	7, e
	jr	Z, 00160$
	bit	7, d
	jr	NZ, 00161$
	cp	a, a
	jr	00161$
00160$:
	bit	7, d
	jr	Z, 00161$
	scf
00161$:
	jp	C, 00103$
	ldhl	sp,#2
	ld	a, (hl+)
	ld	e, a
	ld	d, (hl)
	ld	hl, #0x0009
	add	hl, de
	ld	c, l
	ld	b, h
	ld	a, (bc)
	ld	c, a
	rlca
	sbc	a, a
	ld	b, a
	ldhl	sp,	#8
	ld	a,	(hl+)
	ld	h, (hl)
	ld	l, a
	add	hl, bc
	ld	c, l
	ld	b, h
	ldhl	sp,	#6
	ld	a, c
	sub	a, (hl)
	inc	hl
	ld	a, b
	sbc	a, (hl)
	ld	a, b
	ld	d, a
	bit	7, (hl)
	jr	Z, 00162$
	bit	7, d
	jr	NZ, 00163$
	cp	a, a
	jr	00163$
00162$:
	bit	7, d
	jr	Z, 00163$
	scf
00163$:
	jp	C, 00103$
;main.c:68: && (two->y >= one->y && two->y <= one->y + one->height);
	ldhl	sp,#12
	ld	a, (hl+)
	ld	e, a
	ld	a, (hl+)
	inc	hl
	ld	d, a
	ld	a, (de)
	ld	(hl), a
	ldhl	sp,#10
	ld	a, (hl+)
	ld	e, a
	ld	d, (hl)
	ld	a, (de)
	ld	c, a
	ld	e, c
	ldhl	sp,	#15
	ld	a,(hl)
	ld	d,a
	sub	a, c
	bit	7, e
	jr	Z, 00164$
	bit	7, d
	jr	NZ, 00165$
	cp	a, a
	jr	00165$
00164$:
	bit	7, d
	jr	Z, 00165$
	scf
00165$:
	jr	C, 00103$
	ld	a, c
	ldhl	sp,	#11
	ld	(hl+), a
	rlca
	sbc	a, a
	ld	(hl), a
	ldhl	sp,#2
	ld	a, (hl+)
	ld	e, a
	ld	d, (hl)
	ld	hl, #0x000a
	add	hl, de
	push	hl
	ld	a, l
	ldhl	sp,	#15
	ld	(hl), a
	pop	hl
	ld	a, h
	ldhl	sp,	#14
	ld	(hl-), a
	ld	a, (hl+)
	ld	e, a
	ld	d, (hl)
	ld	a, (de)
	ld	(hl), a
	ld	a, (hl-)
	ld	(hl+), a
	rlca
	sbc	a, a
	ld	(hl-), a
	ld	a, (hl+)
	ld	e, a
	ld	d, (hl)
	ldhl	sp,	#11
	ld	a,	(hl+)
	ld	h, (hl)
	ld	l, a
	add	hl, de
	push	hl
	ld	a, l
	ldhl	sp,	#11
	ld	(hl), a
	pop	hl
	ld	a, h
	ldhl	sp,	#10
	ld	(hl), a
	ldhl	sp,	#15
	ld	a, (hl-)
	ld	(hl+), a
	rlca
	sbc	a, a
	ld	(hl), a
	ldhl	sp,	#9
	ld	e, l
	ld	d, h
	ldhl	sp,	#14
	ld	a, (de)
	inc	de
	sub	a, (hl)
	inc	hl
	ld	a, (de)
	sbc	a, (hl)
	ld	a, (de)
	ld	d, a
	bit	7, (hl)
	jr	Z, 00166$
	bit	7, d
	jr	NZ, 00167$
	cp	a, a
	jr	00167$
00166$:
	bit	7, d
	jr	Z, 00167$
	scf
00167$:
	jr	NC, 00104$
00103$:
	ldhl	sp,	#15
	ld	(hl), #0x00
	jr	00105$
00104$:
	ldhl	sp,	#15
	ld	(hl), #0x01
00105$:
	ldhl	sp,	#15
	ld	e, (hl)
;main.c:69: }
	add	sp, #16
	ret
;main.c:71: UBYTE is_goal(UINT8 newplayerx, UINT8 newplayery){
;	---------------------------------
; Function is_goal
; ---------------------------------
_is_goal::
	add	sp, #-6
;main.c:75: indexTLx = (car1.x - 16) / 8;
	ld	a, (#(_car1 + 5) + 0)
	ldhl	sp,	#2
	ld	(hl+), a
	rlca
	sbc	a, a
	ld	(hl-), a
	ld	a, (hl+)
	ld	e, a
	ld	d, (hl)
	ld	hl, #0x0010
	ld	a, e
	sub	a, l
	ld	e, a
	ld	a, d
	sbc	a, h
	ldhl	sp,	#5
	ld	(hl-), a
	ld	(hl), e
	ld	a, (hl+)
	ld	c, a
	ld	b, (hl)
	bit	7, (hl)
	jr	Z, 00109$
	dec	hl
	dec	hl
	dec	hl
	ld	a, (hl+)
	ld	e, a
	ld	d, (hl)
	ld	hl, #0xfff7
	add	hl, de
	ld	c, l
	ld	b, h
00109$:
	srl	b
	rr	c
	srl	b
	rr	c
	srl	b
	rr	c
;main.c:76: indexTLy = (car1.y - 16) / 8;
	ld	a, (#(_car1 + 6) + 0)
	ldhl	sp,	#0
	ld	(hl+), a
	rlca
	sbc	a, a
	ld	(hl), a
	pop	de
	push	de
	ld	hl, #0x0010
	ld	a, e
	sub	a, l
	ld	e, a
	ld	a, d
	sbc	a, h
	ldhl	sp,	#3
	ld	(hl-), a
	ld	(hl), e
	ld	a, (hl+)
	inc	hl
	ld	(hl-), a
	ld	a, (hl+)
	inc	hl
	ld	(hl-), a
	dec	hl
	bit	7, (hl)
	jr	Z, 00110$
	pop	de
	push	de
	ld	hl, #0xfff7
	add	hl, de
	push	hl
	ld	a, l
	ldhl	sp,	#6
	ld	(hl), a
	pop	hl
	ld	a, h
	ldhl	sp,	#5
	ld	(hl), a
00110$:
	ldhl	sp,#4
	ld	a, (hl+)
	ld	e, a
	ld	d, (hl)
	srl	d
	rr	e
	srl	d
	rr	e
	srl	d
	rr	e
;main.c:77: tileindexTL = 32 * indexTLy + indexTLx;
	ld	l, e
	ld	h, d
	add	hl, hl
	add	hl, hl
	add	hl, hl
	add	hl, hl
	add	hl, hl
	add	hl, bc
;main.c:79: if(joypad() & J_A) {
	push	hl
	call	_joypad
	ld	a, e
	pop	de
	bit	4, a
	jr	Z, 00102$
;main.c:80: printf("Tileindex: %d\n", indexTLx);
	push	bc
	push	de
	push	bc
	ld	hl, #___str_0
	push	hl
	call	_printf
	add	sp, #4
	pop	de
	pop	bc
00102$:
;main.c:83: if (indexTLx == 8179)  {
	ld	a, c
	sub	a, #0xf3
	jr	NZ, 00104$
	ld	a, b
	sub	a, #0x1f
	jr	NZ, 00104$
;main.c:84: ball.x = 100;
	ld	de, #_ball + 5
	ld	a, #0x64
	ld	(de), a
;main.c:85: ball.y = 100;
	ld	bc, #_ball + 6
	ld	a, #0x64
	ld	(bc), a
;main.c:86: ball.index_x = 100;
	ld	hl, #_ball + 11
	ld	(hl), #0x64
;main.c:87: ball.index_y = 100;
	ld	hl, #_ball + 12
	ld	(hl), #0x64
;main.c:88: ball.vel = 0;
	ld	hl, #_ball + 7
	ld	(hl), #0x00
;main.c:89: movegamecharacter(&ball, ball.x, ball.y);
	ld	a, (bc)
	ld	b, a
	ld	a, (de)
	push	bc
	inc	sp
	push	af
	inc	sp
	ld	de, #_ball
	push	de
	call	_movegamecharacter
	add	sp, #4
;main.c:90: return 1;
	ld	e, #0x01
	jr	00107$
00104$:
;main.c:93: if (tileindexTL % 32 == 21) {
	ld	a, e
	and	a, #0x1f
	ld	c, a
	ld	b, #0x00
	ld	a, c
	sub	a, #0x15
	or	a, b
	jr	NZ, 00106$
;main.c:94: ball.x = 100;
	ld	bc, #_ball + 5
	ld	a, #0x64
	ld	(bc), a
;main.c:95: ball.y = 100;
	ld	de, #_ball + 6
	ld	a, #0x64
	ld	(de), a
;main.c:96: ball.index_x = 100;
	ld	hl, #_ball + 11
	ld	(hl), #0x64
;main.c:97: ball.index_y = 100;
	ld	hl, #_ball + 12
	ld	(hl), #0x64
;main.c:98: ball.vel = 0;
	ld	hl, #_ball + 7
	ld	(hl), #0x00
;main.c:99: movegamecharacter(&ball, ball.x, ball.y);
	ld	a, (de)
	ld	e, a
	ld	a, (bc)
	ld	h, e
;	spillPairReg hl
;	spillPairReg hl
	push	hl
	inc	sp
	push	af
	inc	sp
	ld	de, #_ball
	push	de
	call	_movegamecharacter
	add	sp, #4
;main.c:100: return 1;
	ld	e, #0x01
	jr	00107$
00106$:
;main.c:102: return 0;
	ld	e, #0x00
00107$:
;main.c:103: }
	add	sp, #6
	ret
___str_0:
	.ascii "Tileindex: %d"
	.db 0x0a
	.db 0x00
;main.c:105: UBYTE is_barrier(UINT8 newplayerx, UINT8 newplayery) {
;	---------------------------------
; Function is_barrier
; ---------------------------------
_is_barrier::
	add	sp, #-46
;main.c:108: indexTLx = (newplayerx - 16) / 8;
	ldhl	sp,	#48
	ld	a, (hl)
	ldhl	sp,	#42
	ld	(hl+), a
	xor	a, a
	ld	(hl-), a
	ld	a, (hl+)
	ld	e, a
	ld	d, (hl)
	ld	hl, #0x0010
	ld	a, e
	sub	a, l
	ld	e, a
	ld	a, d
	sbc	a, h
	ldhl	sp,	#45
	ld	(hl-), a
	ld	(hl), e
	ld	a, (hl+)
	ld	c, a
	ld	b, (hl)
	bit	7, (hl)
	jr	Z, 00122$
	dec	hl
	dec	hl
	dec	hl
	ld	a, (hl+)
	ld	e, a
	ld	d, (hl)
	ld	hl, #0xfff7
	add	hl, de
	ld	c, l
	ld	b, h
00122$:
	srl	b
	rr	c
	srl	b
	rr	c
	srl	b
	rr	c
;main.c:109: indexTLy = (newplayery - 16) / 8;
	ldhl	sp,	#49
	ld	a, (hl)
	ldhl	sp,	#40
	ld	(hl+), a
	xor	a, a
	ld	(hl-), a
	ld	a, (hl+)
	ld	e, a
	ld	d, (hl)
	ld	hl, #0x0010
	ld	a, e
	sub	a, l
	ld	e, a
	ld	a, d
	sbc	a, h
	ldhl	sp,	#43
	ld	(hl-), a
	ld	(hl), e
	ld	a, (hl+)
	inc	hl
	ld	(hl-), a
	ld	a, (hl+)
	inc	hl
	ld	(hl-), a
	dec	hl
	bit	7, (hl)
	jr	Z, 00123$
	dec	hl
	dec	hl
	dec	hl
	ld	a, (hl+)
	ld	e, a
	ld	d, (hl)
	ld	hl, #0xfff7
	add	hl, de
	push	hl
	ld	a, l
	ldhl	sp,	#46
	ld	(hl), a
	pop	hl
	ld	a, h
	ldhl	sp,	#45
	ld	(hl), a
00123$:
	ldhl	sp,#44
	ld	a, (hl+)
	ld	e, a
	ld	d, (hl)
	srl	d
	rr	e
	srl	d
	rr	e
	srl	d
	rr	e
;main.c:110: tileindexTL = 32 * indexTLy + indexTLx;
	ld	l, e
	ld	h, d
	add	hl, hl
	add	hl, hl
	add	hl, hl
	add	hl, hl
	add	hl, hl
	add	hl, bc
	ld	c, l
	ld	a, h
	ldhl	sp,	#42
	ld	(hl), c
	inc	hl
	ld	(hl), a
;main.c:112: if (joypad() & J_A) {
	call	_joypad
;main.c:116: INT16 barriers[20] = {378, 444, 477, 509, 947, -43, 22, 407, 406, 437, 469, 468, 378, 444, 509, 8671, 346, 90, 119, 311};
	ldhl	sp,	#0
	ld	c,l
	ld	b,h
	ld	a, #0x7a
	ld	(hl+), a
	ld	(hl), #0x01
	ld	l, c
;	spillPairReg hl
;	spillPairReg hl
	ld	h, b
;	spillPairReg hl
;	spillPairReg hl
	inc	hl
	inc	hl
	ld	a, #0xbc
	ld	(hl+), a
	ld	(hl), #0x01
	ld	hl, #0x0004
	add	hl, bc
	ld	a, #0xdd
	ld	(hl+), a
	ld	(hl), #0x01
	ld	hl, #0x0006
	add	hl, bc
	ld	a, #0xfd
	ld	(hl+), a
	ld	(hl), #0x01
	ld	hl, #0x0008
	add	hl, bc
	ld	a, #0xb3
	ld	(hl+), a
	ld	(hl), #0x03
	ld	hl, #0x000a
	add	hl, bc
	ld	a, #0xd5
	ld	(hl+), a
	ld	(hl), #0xff
	ld	hl, #0x000c
	add	hl, bc
	ld	a, #0x16
	ld	(hl+), a
	ld	(hl), #0x00
	ld	hl, #0x000e
	add	hl, bc
	ld	a, #0x97
	ld	(hl+), a
	ld	(hl), #0x01
	ld	hl, #0x0010
	add	hl, bc
	ld	a, #0x96
	ld	(hl+), a
	ld	(hl), #0x01
	ld	hl, #0x0012
	add	hl, bc
	ld	a, #0xb5
	ld	(hl+), a
	ld	(hl), #0x01
	ld	hl, #0x0014
	add	hl, bc
	ld	a, #0xd5
	ld	(hl+), a
	ld	(hl), #0x01
	ld	hl, #0x0016
	add	hl, bc
	ld	a, #0xd4
	ld	(hl+), a
	ld	(hl), #0x01
	ld	hl, #0x0018
	add	hl, bc
	ld	a, #0x7a
	ld	(hl+), a
	ld	(hl), #0x01
	ld	hl, #0x001a
	add	hl, bc
	ld	a, #0xbc
	ld	(hl+), a
	ld	(hl), #0x01
	ld	hl, #0x001c
	add	hl, bc
	ld	a, #0xfd
	ld	(hl+), a
	ld	(hl), #0x01
	ld	hl, #0x001e
	add	hl, bc
	ld	a, #0xdf
	ld	(hl+), a
	ld	(hl), #0x21
	ld	hl, #0x0020
	add	hl, bc
	ld	a, #0x5a
	ld	(hl+), a
	ld	(hl), #0x01
	ld	hl, #0x0022
	add	hl, bc
	ld	a, #0x5a
	ld	(hl+), a
	ld	(hl), #0x00
	ld	hl, #0x0024
	add	hl, bc
	ld	a, #0x77
	ld	(hl+), a
	ld	(hl), #0x00
	ld	hl, #0x0026
	add	hl, bc
	ld	a, #0x37
	ld	(hl+), a
	ld	(hl), #0x01
;main.c:118: if (tileindexTL >= 896 AND tileindexTL <= 914) {
	ldhl	sp,	#42
	ld	a, (hl+)
	sub	a, #0x80
	ld	a, (hl)
	sbc	a, #0x03
	jr	C, 00114$
	dec	hl
	ld	a, #0x92
	sub	a, (hl)
	inc	hl
	ld	a, #0x03
	sbc	a, (hl)
	jr	C, 00114$
;main.c:119: return 1;
	ld	e, #0x01
	jr	00120$
00114$:
;main.c:120: } else if (512 <= tileindexTL AND tileindexTL <= 530) {
	ldhl	sp,	#42
	ld	a, (hl+)
	sub	a, #0x00
	ld	a, (hl)
	sbc	a, #0x02
	jr	C, 00110$
	dec	hl
	ld	a, #0x12
	sub	a, (hl)
	inc	hl
	ld	a, #0x02
	sbc	a, (hl)
	jr	C, 00110$
;main.c:121: return 1;
	ld	e, #0x01
	jr	00120$
00110$:
;main.c:122: } else if (tileindexTL % 32 == 26){
	ldhl	sp,	#42
	ld	a, (hl)
	and	a, #0x1f
	ld	e, a
	ld	d, #0x00
	ld	a, e
	sub	a, #0x1a
	or	a, d
	jr	NZ, 00133$
;main.c:123: return 1;
	ld	e, #0x01
	jr	00120$
;main.c:125: for (int i = 0; i < 20; i++) {
00133$:
	xor	a, a
	ldhl	sp,	#44
	ld	(hl+), a
	ld	(hl), a
00118$:
	ldhl	sp,	#44
	ld	a, (hl+)
	sub	a, #0x14
	ld	a, (hl)
	sbc	a, #0x00
	ld	d, (hl)
	ld	a, #0x00
	bit	7,a
	jr	Z, 00176$
	bit	7, d
	jr	NZ, 00177$
	cp	a, a
	jr	00177$
00176$:
	bit	7, d
	jr	Z, 00177$
	scf
00177$:
	jr	NC, 00111$
;main.c:126: if (tileindexTL == barriers[i]) {
	ldhl	sp,	#44
	ld	a, (hl+)
	ld	e, (hl)
	add	a, a
	rl	e
	ld	l, a
	ld	h, e
	add	hl, bc
	ld	a, (hl+)
	ld	l, (hl)
;	spillPairReg hl
	ld	e, a
	ld	d, l
	ldhl	sp,	#42
	ld	a, (hl)
	sub	a, e
	jr	NZ, 00119$
	inc	hl
	ld	a, (hl)
	sub	a, d
	jr	NZ, 00119$
;main.c:127: return 1;
	ld	e, #0x01
	jr	00120$
00119$:
;main.c:125: for (int i = 0; i < 20; i++) {
	ldhl	sp,	#44
	inc	(hl)
	jr	NZ, 00118$
	inc	hl
	inc	(hl)
	jr	00118$
00111$:
;main.c:131: return 0;
	ld	e, #0x00
00120$:
;main.c:132: }
	add	sp, #46
	ret
;main.c:134: void load_car_sprite(UINT8 direction) {
;	---------------------------------
; Function load_car_sprite
; ---------------------------------
_load_car_sprite::
;main.c:135: set_sprite_tile(0, 4 * direction);
	ldhl	sp,	#2
	ld	c, (hl)
	ld	a, c
	add	a, a
	add	a, a
	ld	b, a
;C:/Users/campb/Documents/gbdk/include/gb/gb.h:1174: shadow_OAM[nb].tile=tile;
	ld	hl, #(_shadow_OAM + 2)
	ld	(hl), b
;main.c:136: car1.spriteids[0] = 0;
	ld	hl, #(_car1 + 1)
	ld	(hl), #0x00
;main.c:137: set_sprite_tile(1, 4 * direction + 2);
	ld	a, c
	add	a, a
	add	a, a
	ld	c, a
	ld	b, c
	inc	b
	inc	b
;C:/Users/campb/Documents/gbdk/include/gb/gb.h:1174: shadow_OAM[nb].tile=tile;
	ld	hl, #(_shadow_OAM + 6)
	ld	(hl), b
;main.c:138: car1.spriteids[1] = 1;
	ld	hl, #(_car1 + 2)
	ld	(hl), #0x01
;main.c:139: set_sprite_tile(2, 4 * direction + 1);
	ld	b, c
	inc	b
;C:/Users/campb/Documents/gbdk/include/gb/gb.h:1174: shadow_OAM[nb].tile=tile;
	ld	hl, #(_shadow_OAM + 10)
	ld	(hl), b
;main.c:140: car1.spriteids[2] = 2;
	ld	hl, #(_car1 + 3)
	ld	(hl), #0x02
;main.c:141: set_sprite_tile(3, 4 * direction + 3);
	inc	c
	inc	c
	inc	c
;C:/Users/campb/Documents/gbdk/include/gb/gb.h:1174: shadow_OAM[nb].tile=tile;
	ld	hl, #(_shadow_OAM + 14)
	ld	(hl), c
;main.c:142: car1.spriteids[3] = 3;
	ld	hl, #(_car1 + 4)
	ld	(hl), #0x03
;main.c:143: }
	ret
;main.c:145: void load_ai_sprite(UINT8 direction) {
;	---------------------------------
; Function load_ai_sprite
; ---------------------------------
_load_ai_sprite::
;main.c:146: set_sprite_tile(8, 68 + 4 * direction);
	ldhl	sp,	#2
	ld	a, (hl)
	add	a, a
	add	a, a
	ld	c, a
	add	a, #0x44
	ld	b, a
;C:/Users/campb/Documents/gbdk/include/gb/gb.h:1174: shadow_OAM[nb].tile=tile;
	ld	hl, #(_shadow_OAM + 34)
	ld	(hl), b
;main.c:147: car2.spriteids[0] = 8;
	ld	hl, #(_car2 + 1)
	ld	(hl), #0x08
;main.c:148: set_sprite_tile(9, 68 + 4 * direction + 2);
	ld	a, c
	add	a, #0x46
	ld	b, a
;C:/Users/campb/Documents/gbdk/include/gb/gb.h:1174: shadow_OAM[nb].tile=tile;
	ld	hl, #(_shadow_OAM + 38)
	ld	(hl), b
;main.c:149: car2.spriteids[1] = 9;
	ld	hl, #(_car2 + 2)
	ld	(hl), #0x09
;main.c:150: set_sprite_tile(10, 68 + 4 * direction + 1);
	ld	a, c
	add	a, #0x45
	ld	b, a
;C:/Users/campb/Documents/gbdk/include/gb/gb.h:1174: shadow_OAM[nb].tile=tile;
	ld	hl, #(_shadow_OAM + 42)
	ld	(hl), b
;main.c:151: car2.spriteids[2] = 10;
	ld	hl, #(_car2 + 3)
	ld	(hl), #0x0a
;main.c:152: set_sprite_tile(11, 68 + 4 * direction + 3);
	ld	a, c
	add	a, #0x47
	ld	c, a
;C:/Users/campb/Documents/gbdk/include/gb/gb.h:1174: shadow_OAM[nb].tile=tile;
	ld	hl, #(_shadow_OAM + 46)
	ld	(hl), c
;main.c:153: car2.spriteids[3] = 11;
	ld	hl, #(_car2 + 4)
	ld	(hl), #0x0b
;main.c:154: }
	ret
;main.c:156: void movegamecharacter(struct GameObject* object, INT8 x, INT8 y){
;	---------------------------------
; Function movegamecharacter
; ---------------------------------
_movegamecharacter::
	add	sp, #-3
;main.c:157: move_sprite(object->spriteids[0], x, y);
	ldhl	sp,	#8
	ld	a, (hl)
	ldhl	sp,	#0
	ld	(hl), a
	ldhl	sp,	#7
	ld	a, (hl)
	ldhl	sp,	#1
	ld	(hl), a
	ldhl	sp,	#5
	ld	a, (hl+)
	ld	e, a
	ld	d, (hl)
	ld	l, e
;	spillPairReg hl
;	spillPairReg hl
	ld	h, d
;	spillPairReg hl
;	spillPairReg hl
	inc	hl
;C:/Users/campb/Documents/gbdk/include/gb/gb.h:1247: OAM_item_t * itm = &shadow_OAM[nb];
	ld	l, (hl)
;	spillPairReg hl
;	spillPairReg hl
	ld	h, #0x00
;	spillPairReg hl
;	spillPairReg hl
	add	hl, hl
	add	hl, hl
	ld	bc, #_shadow_OAM
	add	hl, bc
	ld	c, l
	ld	b, h
;C:/Users/campb/Documents/gbdk/include/gb/gb.h:1248: itm->y=y, itm->x=x;
	ldhl	sp,	#0
	ld	a, (hl+)
	ld	(bc), a
	inc	bc
	ld	a, (hl)
	ld	(bc), a
;main.c:158: move_sprite(object->spriteids[1], x + spritesize, y);
;setupPair	HL
	ld	a, (#_spritesize)
	ldhl	sp,	#1
	add	a, (hl)
	ld	l, e
;	spillPairReg hl
;	spillPairReg hl
	ld	h, d
;	spillPairReg hl
;	spillPairReg hl
	inc	hl
	inc	hl
	ld	c, (hl)
	ldhl	sp,	#2
	ld	(hl), a
;C:/Users/campb/Documents/gbdk/include/gb/gb.h:1247: OAM_item_t * itm = &shadow_OAM[nb];
	ld	l, c
;	spillPairReg hl
;	spillPairReg hl
	ld	h, #0x00
;	spillPairReg hl
;	spillPairReg hl
	add	hl, hl
	add	hl, hl
	ld	bc, #_shadow_OAM
	add	hl, bc
	ld	c, l
	ld	b, h
;C:/Users/campb/Documents/gbdk/include/gb/gb.h:1248: itm->y=y, itm->x=x;
	ldhl	sp,	#0
	ld	a, (hl+)
	inc	hl
	ld	(bc), a
	inc	bc
	ld	a, (hl)
	ld	(bc), a
;main.c:159: move_sprite(object->spriteids[2], x, y + spritesize);
;setupPair	HL
	ld	a, (#_spritesize)
	ldhl	sp,	#0
	add	a, (hl)
	ld	c, a
	ld	l, e
;	spillPairReg hl
;	spillPairReg hl
	ld	h, d
;	spillPairReg hl
;	spillPairReg hl
	inc	hl
	inc	hl
	inc	hl
;C:/Users/campb/Documents/gbdk/include/gb/gb.h:1247: OAM_item_t * itm = &shadow_OAM[nb];
	ld	l, (hl)
;	spillPairReg hl
;	spillPairReg hl
	ld	h, #0x00
;	spillPairReg hl
;	spillPairReg hl
	add	hl, hl
	add	hl, hl
	push	de
	ld	de, #_shadow_OAM
	add	hl, de
	pop	de
;C:/Users/campb/Documents/gbdk/include/gb/gb.h:1248: itm->y=y, itm->x=x;
	ld	a, c
	ld	(hl+), a
	ld	c, l
	ld	b, h
	ldhl	sp,	#1
	ld	a, (hl)
	ld	(bc), a
;main.c:160: move_sprite(object->spriteids[3], x + spritesize, y + spritesize);
;setupPair	HL
	ld	hl, #_spritesize
	ld	c, (hl)
	ldhl	sp,	#0
	ld	a, (hl+)
	add	a, c
	ld	b, a
	ld	a, (hl)
	add	a, c
	ld	c, a
	ld	hl, #0x0004
	add	hl, de
;C:/Users/campb/Documents/gbdk/include/gb/gb.h:1247: OAM_item_t * itm = &shadow_OAM[nb];
	ld	l, (hl)
;	spillPairReg hl
;	spillPairReg hl
	ld	h, #0x00
;	spillPairReg hl
;	spillPairReg hl
	add	hl, hl
	add	hl, hl
	ld	de, #_shadow_OAM
	add	hl, de
;C:/Users/campb/Documents/gbdk/include/gb/gb.h:1248: itm->y=y, itm->x=x;
	ld	a, b
	ld	(hl+), a
	ld	(hl), c
;main.c:160: move_sprite(object->spriteids[3], x + spritesize, y + spritesize);
;main.c:161: }
	add	sp, #3
	ret
;main.c:163: void performantdelay(UINT8 numloops){
;	---------------------------------
; Function performantdelay
; ---------------------------------
_performantdelay::
;main.c:165: for(i = 0; i < numloops; i++){
	ld	c, #0x00
00103$:
	ld	a, c
	ldhl	sp,	#2
	sub	a, (hl)
	ret	NC
;main.c:166: wait_vbl_done();
	call	_wait_vbl_done
;main.c:165: for(i = 0; i < numloops; i++){
	inc	c
;main.c:168: }
	jr	00103$
;main.c:170: void setup_ball() {
;	---------------------------------
; Function setup_ball
; ---------------------------------
_setup_ball::
;main.c:171: ball.x = 100;
	ld	hl, #(_ball + 5)
	ld	(hl), #0x64
;main.c:172: ball.y = 100;
	ld	hl, #(_ball + 6)
	ld	(hl), #0x64
;main.c:173: ball.width = 16;
	ld	hl, #(_ball + 9)
	ld	(hl), #0x10
;main.c:174: ball.height = 16;   
	ld	hl, #(_ball + 10)
	ld	(hl), #0x10
;main.c:175: ball.index_x = 100;
	ld	hl, #(_ball + 11)
	ld	(hl), #0x64
;main.c:176: ball.index_y = 100;
	ld	hl, #(_ball + 12)
	ld	(hl), #0x64
;main.c:177: ball.id = 1;
	ld	hl, #(_ball + 13)
	ld	(hl), #0x01
;main.c:179: load_ball_sprite();
	call	_load_ball_sprite
;main.c:180: movegamecharacter(&ball, ball.x, ball.y);
	ld	hl, #(_ball + 6)
	ld	b, (hl)
	ld	a, (#(_ball + 5) + 0)
	push	bc
	inc	sp
	push	af
	inc	sp
	ld	de, #_ball
	push	de
	call	_movegamecharacter
	add	sp, #4
;main.c:181: }
	ret
;main.c:183: void setupcar_light(){
;	---------------------------------
; Function setupcar_light
; ---------------------------------
_setupcar_light::
;main.c:184: car1.direction = 0;
	ld	hl, #_car1
	ld	(hl), #0x00
;main.c:185: car1.x = 80;
	ld	hl, #(_car1 + 5)
	ld	(hl), #0x50
;main.c:186: car1.y = 80;
	ld	hl, #(_car1 + 6)
	ld	(hl), #0x50
;main.c:187: car1.width = 16;
	ld	hl, #(_car1 + 9)
	ld	(hl), #0x10
;main.c:188: car1.height = 16;
	ld	hl, #(_car1 + 10)
	ld	(hl), #0x10
;main.c:189: car1.acc = 0;
	ld	hl, #(_car1 + 8)
	ld	(hl), #0x00
;main.c:190: car1.vel = 0;
	ld	hl, #(_car1 + 7)
	ld	(hl), #0x00
;main.c:192: set_sprite_data(0, 64, car_light);
	ld	de, #_car_light
	push	de
	ld	hl, #0x4000
	push	hl
	call	_set_sprite_data
	add	sp, #4
;main.c:193: load_car_sprite(car1.direction);
	ld	a, (#_car1 + 0)
	push	af
	inc	sp
	call	_load_car_sprite
	inc	sp
;main.c:195: movegamecharacter(&car1, car1.x, car1.y);
	ld	hl, #(_car1 + 6)
	ld	b, (hl)
	ld	a, (#(_car1 + 5) + 0)
	push	bc
	inc	sp
	push	af
	inc	sp
	ld	de, #_car1
	push	de
	call	_movegamecharacter
	add	sp, #4
;main.c:196: }
	ret
;main.c:198: void setupcar_dark(){
;	---------------------------------
; Function setupcar_dark
; ---------------------------------
_setupcar_dark::
;main.c:199: car2.direction = 0;
	ld	hl, #_car2
	ld	(hl), #0x00
;main.c:200: car2.x = 40;
	ld	hl, #(_car2 + 5)
	ld	(hl), #0x28
;main.c:201: car2.y = 40;
	ld	hl, #(_car2 + 6)
	ld	(hl), #0x28
;main.c:202: car2.width = 16;
	ld	hl, #(_car2 + 9)
	ld	(hl), #0x10
;main.c:203: car2.height = 16;
	ld	hl, #(_car2 + 10)
	ld	(hl), #0x10
;main.c:204: car2.acc = 0;
	ld	hl, #(_car2 + 8)
	ld	(hl), #0x00
;main.c:205: car2.vel = 0;
	ld	hl, #(_car2 + 7)
	ld	(hl), #0x00
;main.c:207: set_sprite_data(68, 64, car_dark);
	ld	de, #_car_dark
	push	de
	ld	hl, #0x4044
	push	hl
	call	_set_sprite_data
	add	sp, #4
;main.c:208: load_ai_sprite(car2.direction);
	ld	a, (#_car2 + 0)
	push	af
	inc	sp
	call	_load_ai_sprite
	inc	sp
;main.c:210: movegamecharacter(&car2, car2.x, car2.y);
	ld	hl, #(_car2 + 6)
	ld	b, (hl)
	ld	a, (#(_car2 + 5) + 0)
	push	bc
	inc	sp
	push	af
	inc	sp
	ld	de, #_car2
	push	de
	call	_movegamecharacter
	add	sp, #4
;main.c:211: }
	ret
;main.c:213: void move_car(struct GameObject* car) {
;	---------------------------------
; Function move_car
; ---------------------------------
_move_car::
	add	sp, #-11
;main.c:214: if (car->acc == 0 AND car->vel > 0) {
	ldhl	sp,	#13
	ld	a, (hl)
	ldhl	sp,	#0
	ld	(hl), a
	ldhl	sp,	#14
	ld	a, (hl)
	ldhl	sp,	#1
	ld	(hl), a
	pop	de
	push	de
	ld	hl, #0x0008
	add	hl, de
	push	hl
	ld	a, l
	ldhl	sp,	#11
	ld	(hl), a
	pop	hl
	ld	a, h
	ldhl	sp,	#10
	ld	(hl-), a
	ld	a, (hl+)
	ld	e, a
	ld	d, (hl)
	ld	a, (de)
	or	a, a
	jr	NZ, 00102$
	pop	de
	push	de
	ld	hl, #0x0007
	add	hl, de
	ld	c, l
	ld	b, h
	ld	a, (bc)
	ld	l, a
;	spillPairReg hl
;	spillPairReg hl
	ld	e, l
	xor	a, a
	ld	d, a
	sub	a, l
	bit	7, e
	jr	Z, 00160$
	bit	7, d
	jr	NZ, 00161$
	cp	a, a
	jr	00161$
00160$:
	bit	7, d
	jr	Z, 00161$
	scf
00161$:
	jr	NC, 00102$
;main.c:215: car->vel -= 1;
	ld	a, l
	dec	a
	ld	(bc), a
00102$:
;main.c:217: if (car->acc == 0 AND car->vel < 0) {
	ldhl	sp,#9
	ld	a, (hl+)
	ld	e, a
	ld	d, (hl)
	ld	a, (de)
	or	a, a
	jr	NZ, 00105$
	pop	de
	push	de
	ld	hl, #0x0007
	add	hl, de
	ld	c, l
	ld	b, h
	ld	a, (bc)
	ld	l, a
;	spillPairReg hl
;	spillPairReg hl
	bit	7, l
	jr	Z, 00105$
;main.c:218: car->vel += 1;
	ld	a, l
	inc	a
	ld	(bc), a
00105$:
;main.c:220: if (car->vel > max_vel OR car->vel < -max_vel) {
	pop	de
	push	de
	ld	hl, #0x0007
	add	hl, de
	push	hl
	ld	a, l
	ldhl	sp,	#4
	ld	(hl), a
	pop	hl
	ld	a, h
	ldhl	sp,	#3
	ld	(hl-), a
	ld	a, (hl+)
	ld	e, a
	ld	d, (hl)
	ld	a, (de)
	ld	c, a
	ld	e, c
;setupPair	HL
	ld	hl, #_max_vel
	ld	d, (hl)
;setupPair	HL
	ld	a, (hl)
	sub	a, c
	bit	7, e
	jr	Z, 00162$
	bit	7, d
	jr	NZ, 00163$
	cp	a, a
	jr	00163$
00162$:
	bit	7, d
	jr	Z, 00163$
	scf
00163$:
	jr	C, 00107$
;setupPair	HL
	ld	a, (#_max_vel)
	ld	e, a
	rlca
	sbc	a, a
	ld	d, a
	xor	a, a
	sub	a, e
	ld	b, a
	sbc	a, a
	sub	a, d
	ld	l, a
;	spillPairReg hl
;	spillPairReg hl
	ld	a, c
	rlca
	sbc	a, a
	ld	h, a
;	spillPairReg hl
;	spillPairReg hl
	ld	e, l
	ld	d, h
	ld	a, c
	sub	a, b
	ld	a, h
	sbc	a, l
	bit	7, e
	jr	Z, 00164$
	bit	7, d
	jr	NZ, 00165$
	cp	a, a
	jr	00165$
00164$:
	bit	7, d
	jr	Z, 00165$
	scf
00165$:
	jr	NC, 00108$
00107$:
;main.c:221: car->acc = 0;   
	ldhl	sp,	#9
	ld	a,	(hl+)
	ld	h, (hl)
	ld	l, a
	ld	(hl), #0x00
00108$:
;main.c:223: car->vel += car->acc;
	ldhl	sp,#2
	ld	a, (hl+)
	ld	e, a
	ld	d, (hl)
	ld	a, (de)
	ld	c, a
	ldhl	sp,#9
	ld	a, (hl+)
	ld	e, a
	ld	d, (hl)
	ld	a, (de)
	add	a, c
	ld	c, a
	ldhl	sp,	#2
	ld	a,	(hl+)
	ld	h, (hl)
	ld	l, a
	ld	(hl), c
;main.c:224: INT8 dx = car->x;
	pop	de
	push	de
	ld	hl, #0x0005
	add	hl, de
	push	hl
	ld	a, l
	ldhl	sp,	#6
	ld	(hl), a
	pop	hl
	ld	a, h
	ldhl	sp,	#5
	ld	(hl-), a
	ld	a, (hl+)
	ld	e, a
	ld	a, (hl+)
	ld	d, a
	ld	a, (de)
	ld	(hl), a
	ld	a, (hl+)
	ld	(hl), a
;main.c:225: INT8 dy = car->y;
	pop	de
	push	de
	ld	hl, #0x0006
	add	hl, de
	ld	c, l
	ld	b, h
	ld	a, (bc)
	ldhl	sp,	#8
	ld	(hl), a
	ld	a, (hl+)
;main.c:227: switch (car->direction) {
	ld	(hl+), a
	pop	de
	push	de
	ld	a, (de)
	ld	(hl), a
	ld	a, #0x0f
	sub	a, (hl)
	jp	C, 00126$
	ld	e, (hl)
	ld	d, #0x00
	ld	hl, #00166$
	add	hl, de
	add	hl, de
	add	hl, de
	jp	(hl)
00166$:
	jp	00110$
	jp	00111$
	jp	00112$
	jp	00113$
	jp	00114$
	jp	00115$
	jp	00116$
	jp	00117$
	jp	00118$
	jp	00119$
	jp	00120$
	jp	00121$
	jp	00122$
	jp	00123$
	jp	00124$
	jp	00125$
;main.c:228: case 0:
00110$:
;main.c:229: car->y -= car->vel;
	ldhl	sp,#2
	ld	a, (hl+)
	ld	e, a
	ld	d, (hl)
	ld	a, (de)
	ldhl	sp,	#10
	ld	(hl-), a
	dec	hl
	ld	a, (hl+)
	inc	hl
	sub	a, (hl)
	ld	(bc), a
;main.c:230: break;
	jp	00126$
;main.c:231: case 1:
00111$:
;main.c:232: car->x += 45*car->vel/100;
	ldhl	sp,#2
	ld	a, (hl+)
	ld	e, a
	ld	d, (hl)
	ld	a, (de)
	ld	l, a
;	spillPairReg hl
;	spillPairReg hl
	rlca
	sbc	a, a
	ld	h, a
;	spillPairReg hl
;	spillPairReg hl
	ld	e, l
	ld	d, h
	add	hl, hl
	add	hl, hl
	add	hl, de
	add	hl, hl
	add	hl, de
	add	hl, hl
	add	hl, hl
	add	hl, de
	push	bc
	ld	de, #0x0064
	push	de
	push	hl
	call	__divsint
	add	sp, #4
	pop	bc
	ld	a, e
	ldhl	sp,	#6
	add	a, (hl)
	dec	hl
	dec	hl
	push	af
	ld	a,	(hl+)
	ld	h, (hl)
	ld	l, a
	pop	af
	ld	(hl), a
;main.c:233: car->y -= 45*car->vel/50;
	ld	a, (bc)
	ldhl	sp,	#10
	ld	(hl), a
	ldhl	sp,#2
	ld	a, (hl+)
	ld	e, a
	ld	d, (hl)
	ld	a, (de)
	ld	l, a
;	spillPairReg hl
;	spillPairReg hl
	rlca
	sbc	a, a
	ld	h, a
;	spillPairReg hl
;	spillPairReg hl
	ld	e, l
	ld	d, h
	add	hl, hl
	add	hl, hl
	add	hl, de
	add	hl, hl
	add	hl, de
	add	hl, hl
	add	hl, hl
	add	hl, de
	push	bc
	ld	de, #0x0032
	push	de
	push	hl
	call	__divsint
	add	sp, #4
	pop	bc
	ldhl	sp,	#10
	ld	a, (hl)
	sub	a, e
	ld	(bc), a
;main.c:234: break;
	jp	00126$
;main.c:235: case 2:
00112$:
;main.c:236: car->x += 71*car->vel/100;
	ldhl	sp,#2
	ld	a, (hl+)
	ld	e, a
	ld	d, (hl)
	ld	a, (de)
	ld	l, a
;	spillPairReg hl
;	spillPairReg hl
	rlca
	sbc	a, a
	ld	h, a
;	spillPairReg hl
;	spillPairReg hl
	ld	e, l
	ld	d, h
	add	hl, hl
	add	hl, hl
	add	hl, hl
	add	hl, hl
	add	hl, de
	add	hl, hl
	add	hl, de
	add	hl, hl
	add	hl, de
	push	bc
	ld	de, #0x0064
	push	de
	push	hl
	call	__divsint
	add	sp, #4
	pop	bc
	ld	a, e
	ldhl	sp,	#6
	add	a, (hl)
	dec	hl
	dec	hl
	push	af
	ld	a,	(hl+)
	ld	h, (hl)
	ld	l, a
	pop	af
	ld	(hl), a
;main.c:237: car->y -= 71*car->vel/100;
	ld	a, (bc)
	ldhl	sp,	#10
	ld	(hl), a
	ldhl	sp,#2
	ld	a, (hl+)
	ld	e, a
	ld	d, (hl)
	ld	a, (de)
	ld	l, a
;	spillPairReg hl
;	spillPairReg hl
	rlca
	sbc	a, a
	ld	h, a
;	spillPairReg hl
;	spillPairReg hl
	ld	e, l
	ld	d, h
	add	hl, hl
	add	hl, hl
	add	hl, hl
	add	hl, hl
	add	hl, de
	add	hl, hl
	add	hl, de
	add	hl, hl
	add	hl, de
	push	bc
	ld	de, #0x0064
	push	de
	push	hl
	call	__divsint
	add	sp, #4
	pop	bc
	ldhl	sp,	#10
	ld	a, (hl)
	sub	a, e
	ld	(bc), a
;main.c:238: break;
	jp	00126$
;main.c:239: case 3:
00113$:
;main.c:240: car->x += 45*car->vel/50;
	ldhl	sp,#2
	ld	a, (hl+)
	ld	e, a
	ld	d, (hl)
	ld	a, (de)
	ld	l, a
;	spillPairReg hl
;	spillPairReg hl
	rlca
	sbc	a, a
	ld	h, a
;	spillPairReg hl
;	spillPairReg hl
	ld	e, l
	ld	d, h
	add	hl, hl
	add	hl, hl
	add	hl, de
	add	hl, hl
	add	hl, de
	add	hl, hl
	add	hl, hl
	add	hl, de
	push	bc
	ld	de, #0x0032
	push	de
	push	hl
	call	__divsint
	add	sp, #4
	pop	bc
	ld	a, e
	ldhl	sp,	#6
	add	a, (hl)
	dec	hl
	dec	hl
	push	af
	ld	a,	(hl+)
	ld	h, (hl)
	ld	l, a
	pop	af
	ld	(hl), a
;main.c:241: car->y -= 45*car->vel/100;
	ld	a, (bc)
	ldhl	sp,	#10
	ld	(hl), a
	ldhl	sp,#2
	ld	a, (hl+)
	ld	e, a
	ld	d, (hl)
	ld	a, (de)
	ld	l, a
;	spillPairReg hl
;	spillPairReg hl
	rlca
	sbc	a, a
	ld	h, a
;	spillPairReg hl
;	spillPairReg hl
	ld	e, l
	ld	d, h
	add	hl, hl
	add	hl, hl
	add	hl, de
	add	hl, hl
	add	hl, de
	add	hl, hl
	add	hl, hl
	add	hl, de
	push	bc
	ld	de, #0x0064
	push	de
	push	hl
	call	__divsint
	add	sp, #4
	pop	bc
	ldhl	sp,	#10
	ld	a, (hl)
	sub	a, e
	ld	(bc), a
;main.c:242: break;
	jp	00126$
;main.c:243: case 4:
00114$:
;main.c:244: car->x += car->vel;
	ldhl	sp,#2
	ld	a, (hl+)
	ld	e, a
	ld	d, (hl)
	ld	a, (de)
	ldhl	sp,	#6
	add	a, (hl)
	dec	hl
	dec	hl
	push	af
	ld	a,	(hl+)
	ld	h, (hl)
	ld	l, a
	pop	af
	ld	(hl), a
;main.c:245: break;
	jp	00126$
;main.c:246: case 5:
00115$:
;main.c:247: car->x += 45*car->vel/50;
	ldhl	sp,#2
	ld	a, (hl+)
	ld	e, a
	ld	d, (hl)
	ld	a, (de)
	ld	l, a
;	spillPairReg hl
;	spillPairReg hl
	rlca
	sbc	a, a
	ld	h, a
;	spillPairReg hl
;	spillPairReg hl
	ld	e, l
	ld	d, h
	add	hl, hl
	add	hl, hl
	add	hl, de
	add	hl, hl
	add	hl, de
	add	hl, hl
	add	hl, hl
	add	hl, de
	push	bc
	ld	de, #0x0032
	push	de
	push	hl
	call	__divsint
	add	sp, #4
	pop	bc
	ld	a, e
	ldhl	sp,	#6
	add	a, (hl)
	dec	hl
	dec	hl
	push	af
	ld	a,	(hl+)
	ld	h, (hl)
	ld	l, a
	pop	af
	ld	(hl), a
;main.c:248: car->y += 45*car->vel/100;
	ld	a, (bc)
	ldhl	sp,	#10
	ld	(hl), a
	ldhl	sp,#2
	ld	a, (hl+)
	ld	e, a
	ld	d, (hl)
	ld	a, (de)
	ld	l, a
;	spillPairReg hl
;	spillPairReg hl
	rlca
	sbc	a, a
	ld	h, a
;	spillPairReg hl
;	spillPairReg hl
	ld	e, l
	ld	d, h
	add	hl, hl
	add	hl, hl
	add	hl, de
	add	hl, hl
	add	hl, de
	add	hl, hl
	add	hl, hl
	add	hl, de
	push	bc
	ld	de, #0x0064
	push	de
	push	hl
	call	__divsint
	add	sp, #4
	pop	bc
	ld	a, e
	ldhl	sp,	#10
	add	a, (hl)
	ld	(bc), a
;main.c:249: break;
	jp	00126$
;main.c:250: case 6:
00116$:
;main.c:251: car->x += 71*car->vel/100;
	ldhl	sp,#2
	ld	a, (hl+)
	ld	e, a
	ld	d, (hl)
	ld	a, (de)
	ld	l, a
;	spillPairReg hl
;	spillPairReg hl
	rlca
	sbc	a, a
	ld	h, a
;	spillPairReg hl
;	spillPairReg hl
	ld	e, l
	ld	d, h
	add	hl, hl
	add	hl, hl
	add	hl, hl
	add	hl, hl
	add	hl, de
	add	hl, hl
	add	hl, de
	add	hl, hl
	add	hl, de
	push	bc
	ld	de, #0x0064
	push	de
	push	hl
	call	__divsint
	add	sp, #4
	pop	bc
	ld	a, e
	ldhl	sp,	#6
	add	a, (hl)
	dec	hl
	dec	hl
	push	af
	ld	a,	(hl+)
	ld	h, (hl)
	ld	l, a
	pop	af
	ld	(hl), a
;main.c:252: car->y += 71*car->vel/100;
	ld	a, (bc)
	ldhl	sp,	#10
	ld	(hl), a
	ldhl	sp,#2
	ld	a, (hl+)
	ld	e, a
	ld	d, (hl)
	ld	a, (de)
	ld	l, a
;	spillPairReg hl
;	spillPairReg hl
	rlca
	sbc	a, a
	ld	h, a
;	spillPairReg hl
;	spillPairReg hl
	ld	e, l
	ld	d, h
	add	hl, hl
	add	hl, hl
	add	hl, hl
	add	hl, hl
	add	hl, de
	add	hl, hl
	add	hl, de
	add	hl, hl
	add	hl, de
	push	bc
	ld	de, #0x0064
	push	de
	push	hl
	call	__divsint
	add	sp, #4
	pop	bc
	ld	a, e
	ldhl	sp,	#10
	add	a, (hl)
	ld	(bc), a
;main.c:253: break;
	jp	00126$
;main.c:254: case 7:
00117$:
;main.c:255: car->x += 45*car->vel/100;
	ldhl	sp,#2
	ld	a, (hl+)
	ld	e, a
	ld	d, (hl)
	ld	a, (de)
	ld	l, a
;	spillPairReg hl
;	spillPairReg hl
	rlca
	sbc	a, a
	ld	h, a
;	spillPairReg hl
;	spillPairReg hl
	ld	e, l
	ld	d, h
	add	hl, hl
	add	hl, hl
	add	hl, de
	add	hl, hl
	add	hl, de
	add	hl, hl
	add	hl, hl
	add	hl, de
	push	bc
	ld	de, #0x0064
	push	de
	push	hl
	call	__divsint
	add	sp, #4
	pop	bc
	ld	a, e
	ldhl	sp,	#6
	add	a, (hl)
	dec	hl
	dec	hl
	push	af
	ld	a,	(hl+)
	ld	h, (hl)
	ld	l, a
	pop	af
	ld	(hl), a
;main.c:256: car->y += 45*car->vel/50;
	ld	a, (bc)
	ldhl	sp,	#10
	ld	(hl), a
	ldhl	sp,#2
	ld	a, (hl+)
	ld	e, a
	ld	d, (hl)
	ld	a, (de)
	ld	l, a
;	spillPairReg hl
;	spillPairReg hl
	rlca
	sbc	a, a
	ld	h, a
;	spillPairReg hl
;	spillPairReg hl
	ld	e, l
	ld	d, h
	add	hl, hl
	add	hl, hl
	add	hl, de
	add	hl, hl
	add	hl, de
	add	hl, hl
	add	hl, hl
	add	hl, de
	push	bc
	ld	de, #0x0032
	push	de
	push	hl
	call	__divsint
	add	sp, #4
	pop	bc
	ld	a, e
	ldhl	sp,	#10
	add	a, (hl)
	ld	(bc), a
;main.c:257: break;
	jp	00126$
;main.c:258: case 8:
00118$:
;main.c:259: car->y += car->vel;
	ldhl	sp,#2
	ld	a, (hl+)
	ld	e, a
	ld	d, (hl)
	ld	a, (de)
	ldhl	sp,	#8
	add	a, (hl)
	ld	(bc), a
;main.c:260: break;
	jp	00126$
;main.c:261: case 9:
00119$:
;main.c:262: car->x -= 45*car->vel/100;
	ldhl	sp,#2
	ld	a, (hl+)
	ld	e, a
	ld	d, (hl)
	ld	a, (de)
	ld	l, a
;	spillPairReg hl
;	spillPairReg hl
	rlca
	sbc	a, a
	ld	h, a
;	spillPairReg hl
;	spillPairReg hl
	ld	e, l
	ld	d, h
	add	hl, hl
	add	hl, hl
	add	hl, de
	add	hl, hl
	add	hl, de
	add	hl, hl
	add	hl, hl
	add	hl, de
	push	bc
	ld	de, #0x0064
	push	de
	push	hl
	call	__divsint
	add	sp, #4
	pop	bc
	ldhl	sp,	#6
	ld	a, (hl-)
	dec	hl
	sub	a, e
	push	af
	ld	a,	(hl+)
	ld	h, (hl)
	ld	l, a
	pop	af
	ld	(hl), a
;main.c:263: car->y += 45*car->vel/50;
	ld	a, (bc)
	ldhl	sp,	#10
	ld	(hl), a
	ldhl	sp,#2
	ld	a, (hl+)
	ld	e, a
	ld	d, (hl)
	ld	a, (de)
	ld	l, a
;	spillPairReg hl
;	spillPairReg hl
	rlca
	sbc	a, a
	ld	h, a
;	spillPairReg hl
;	spillPairReg hl
	ld	e, l
	ld	d, h
	add	hl, hl
	add	hl, hl
	add	hl, de
	add	hl, hl
	add	hl, de
	add	hl, hl
	add	hl, hl
	add	hl, de
	push	bc
	ld	de, #0x0032
	push	de
	push	hl
	call	__divsint
	add	sp, #4
	pop	bc
	ld	a, e
	ldhl	sp,	#10
	add	a, (hl)
	ld	(bc), a
;main.c:264: break;
	jp	00126$
;main.c:265: case 10:
00120$:
;main.c:266: car->x -= 71*car->vel/100;
	ldhl	sp,#2
	ld	a, (hl+)
	ld	e, a
	ld	d, (hl)
	ld	a, (de)
	ld	l, a
;	spillPairReg hl
;	spillPairReg hl
	rlca
	sbc	a, a
	ld	h, a
;	spillPairReg hl
;	spillPairReg hl
	ld	e, l
	ld	d, h
	add	hl, hl
	add	hl, hl
	add	hl, hl
	add	hl, hl
	add	hl, de
	add	hl, hl
	add	hl, de
	add	hl, hl
	add	hl, de
	push	bc
	ld	de, #0x0064
	push	de
	push	hl
	call	__divsint
	add	sp, #4
	pop	bc
	ldhl	sp,	#6
	ld	a, (hl-)
	dec	hl
	sub	a, e
	push	af
	ld	a,	(hl+)
	ld	h, (hl)
	ld	l, a
	pop	af
	ld	(hl), a
;main.c:267: car->y += 71*car->vel/100;
	ld	a, (bc)
	ldhl	sp,	#10
	ld	(hl), a
	ldhl	sp,#2
	ld	a, (hl+)
	ld	e, a
	ld	d, (hl)
	ld	a, (de)
	ld	l, a
;	spillPairReg hl
;	spillPairReg hl
	rlca
	sbc	a, a
	ld	h, a
;	spillPairReg hl
;	spillPairReg hl
	ld	e, l
	ld	d, h
	add	hl, hl
	add	hl, hl
	add	hl, hl
	add	hl, hl
	add	hl, de
	add	hl, hl
	add	hl, de
	add	hl, hl
	add	hl, de
	push	bc
	ld	de, #0x0064
	push	de
	push	hl
	call	__divsint
	add	sp, #4
	pop	bc
	ld	a, e
	ldhl	sp,	#10
	add	a, (hl)
	ld	(bc), a
;main.c:268: break;
	jp	00126$
;main.c:269: case 11:
00121$:
;main.c:270: car->x -= 45*car->vel/50;
	ldhl	sp,#2
	ld	a, (hl+)
	ld	e, a
	ld	d, (hl)
	ld	a, (de)
	ld	l, a
;	spillPairReg hl
;	spillPairReg hl
	rlca
	sbc	a, a
	ld	h, a
;	spillPairReg hl
;	spillPairReg hl
	ld	e, l
	ld	d, h
	add	hl, hl
	add	hl, hl
	add	hl, de
	add	hl, hl
	add	hl, de
	add	hl, hl
	add	hl, hl
	add	hl, de
	push	bc
	ld	de, #0x0032
	push	de
	push	hl
	call	__divsint
	add	sp, #4
	pop	bc
	ldhl	sp,	#6
	ld	a, (hl-)
	dec	hl
	sub	a, e
	push	af
	ld	a,	(hl+)
	ld	h, (hl)
	ld	l, a
	pop	af
	ld	(hl), a
;main.c:271: car->y += 45*car->vel/100;
	ld	a, (bc)
	ldhl	sp,	#10
	ld	(hl), a
	ldhl	sp,#2
	ld	a, (hl+)
	ld	e, a
	ld	d, (hl)
	ld	a, (de)
	ld	l, a
;	spillPairReg hl
;	spillPairReg hl
	rlca
	sbc	a, a
	ld	h, a
;	spillPairReg hl
;	spillPairReg hl
	ld	e, l
	ld	d, h
	add	hl, hl
	add	hl, hl
	add	hl, de
	add	hl, hl
	add	hl, de
	add	hl, hl
	add	hl, hl
	add	hl, de
	push	bc
	ld	de, #0x0064
	push	de
	push	hl
	call	__divsint
	add	sp, #4
	pop	bc
	ld	a, e
	ldhl	sp,	#10
	add	a, (hl)
	ld	(bc), a
;main.c:272: break;
	jp	00126$
;main.c:273: case 12:
00122$:
;main.c:274: car->x -= car->vel;
	ldhl	sp,#2
	ld	a, (hl+)
	ld	e, a
	ld	d, (hl)
	ld	a, (de)
	ldhl	sp,	#10
	ld	(hl), a
	ldhl	sp,	#6
	ld	a, (hl)
	ldhl	sp,	#10
	sub	a, (hl)
	ldhl	sp,	#4
	push	af
	ld	a,	(hl+)
	ld	h, (hl)
	ld	l, a
	pop	af
	ld	(hl), a
;main.c:275: break;
	jp	00126$
;main.c:276: case 13:
00123$:
;main.c:277: car->x -= 45*car->vel/50;
	ldhl	sp,#2
	ld	a, (hl+)
	ld	e, a
	ld	d, (hl)
	ld	a, (de)
	ld	l, a
;	spillPairReg hl
;	spillPairReg hl
	rlca
	sbc	a, a
	ld	h, a
;	spillPairReg hl
;	spillPairReg hl
	ld	e, l
	ld	d, h
	add	hl, hl
	add	hl, hl
	add	hl, de
	add	hl, hl
	add	hl, de
	add	hl, hl
	add	hl, hl
	add	hl, de
	push	bc
	ld	de, #0x0032
	push	de
	push	hl
	call	__divsint
	add	sp, #4
	pop	bc
	ldhl	sp,	#6
	ld	a, (hl-)
	dec	hl
	sub	a, e
	push	af
	ld	a,	(hl+)
	ld	h, (hl)
	ld	l, a
	pop	af
	ld	(hl), a
;main.c:278: car->y -= 45*car->vel/100;
	ld	a, (bc)
	ldhl	sp,	#10
	ld	(hl), a
	ldhl	sp,#2
	ld	a, (hl+)
	ld	e, a
	ld	d, (hl)
	ld	a, (de)
	ld	l, a
;	spillPairReg hl
;	spillPairReg hl
	rlca
	sbc	a, a
	ld	h, a
;	spillPairReg hl
;	spillPairReg hl
	ld	e, l
	ld	d, h
	add	hl, hl
	add	hl, hl
	add	hl, de
	add	hl, hl
	add	hl, de
	add	hl, hl
	add	hl, hl
	add	hl, de
	push	bc
	ld	de, #0x0064
	push	de
	push	hl
	call	__divsint
	add	sp, #4
	pop	bc
	ldhl	sp,	#10
	ld	a, (hl)
	sub	a, e
	ld	(bc), a
;main.c:279: break;
	jp	00126$
;main.c:280: case 14:
00124$:
;main.c:281: car->x -= 71*car->vel/100;
	ldhl	sp,#2
	ld	a, (hl+)
	ld	e, a
	ld	d, (hl)
	ld	a, (de)
	ld	l, a
;	spillPairReg hl
;	spillPairReg hl
	rlca
	sbc	a, a
	ld	h, a
;	spillPairReg hl
;	spillPairReg hl
	ld	e, l
	ld	d, h
	add	hl, hl
	add	hl, hl
	add	hl, hl
	add	hl, hl
	add	hl, de
	add	hl, hl
	add	hl, de
	add	hl, hl
	add	hl, de
	push	bc
	ld	de, #0x0064
	push	de
	push	hl
	call	__divsint
	add	sp, #4
	pop	bc
	ldhl	sp,	#6
	ld	a, (hl-)
	dec	hl
	sub	a, e
	push	af
	ld	a,	(hl+)
	ld	h, (hl)
	ld	l, a
	pop	af
	ld	(hl), a
;main.c:282: car->y -= 71*car->vel/100;
	ld	a, (bc)
	ldhl	sp,	#10
	ld	(hl), a
	ldhl	sp,#2
	ld	a, (hl+)
	ld	e, a
	ld	d, (hl)
	ld	a, (de)
	ld	l, a
;	spillPairReg hl
;	spillPairReg hl
	rlca
	sbc	a, a
	ld	h, a
;	spillPairReg hl
;	spillPairReg hl
	ld	e, l
	ld	d, h
	add	hl, hl
	add	hl, hl
	add	hl, hl
	add	hl, hl
	add	hl, de
	add	hl, hl
	add	hl, de
	add	hl, hl
	add	hl, de
	push	bc
	ld	de, #0x0064
	push	de
	push	hl
	call	__divsint
	add	sp, #4
	pop	bc
	ldhl	sp,	#10
	ld	a, (hl)
	sub	a, e
	ld	(bc), a
;main.c:283: break;
	jr	00126$
;main.c:284: case 15:
00125$:
;main.c:285: car->x -= 45*car->vel/100;
	ldhl	sp,#2
	ld	a, (hl+)
	ld	e, a
	ld	d, (hl)
	ld	a, (de)
	ld	l, a
;	spillPairReg hl
;	spillPairReg hl
	rlca
	sbc	a, a
	ld	h, a
;	spillPairReg hl
;	spillPairReg hl
	ld	e, l
	ld	d, h
	add	hl, hl
	add	hl, hl
	add	hl, de
	add	hl, hl
	add	hl, de
	add	hl, hl
	add	hl, hl
	add	hl, de
	push	bc
	ld	de, #0x0064
	push	de
	push	hl
	call	__divsint
	add	sp, #4
	pop	bc
	ldhl	sp,	#6
	ld	a, (hl-)
	dec	hl
	sub	a, e
	push	af
	ld	a,	(hl+)
	ld	h, (hl)
	ld	l, a
	pop	af
	ld	(hl), a
;main.c:286: car->y -= 45*car->vel/50;
	ld	a, (bc)
	ldhl	sp,	#10
	ld	(hl), a
	ldhl	sp,#2
	ld	a, (hl+)
	ld	e, a
	ld	d, (hl)
	ld	a, (de)
	ld	l, a
;	spillPairReg hl
;	spillPairReg hl
	rlca
	sbc	a, a
	ld	h, a
;	spillPairReg hl
;	spillPairReg hl
	ld	e, l
	ld	d, h
	add	hl, hl
	add	hl, hl
	add	hl, de
	add	hl, hl
	add	hl, de
	add	hl, hl
	add	hl, hl
	add	hl, de
	push	bc
	ld	de, #0x0032
	push	de
	push	hl
	call	__divsint
	add	sp, #4
	pop	bc
	ldhl	sp,	#10
	ld	a, (hl)
	sub	a, e
	ld	(bc), a
;main.c:288: }
00126$:
;main.c:289: dx -= car->x;
	ldhl	sp,#4
	ld	a, (hl+)
	ld	e, a
	ld	d, (hl)
	ld	a, (de)
	ldhl	sp,	#10
	ld	(hl), a
	ldhl	sp,	#7
	ld	a, (hl)
	ldhl	sp,	#10
	sub	a, (hl)
;main.c:290: dy -= car->y;
	ld	(hl-), a
	ld	a, (bc)
	ld	e, a
	ld	a, (hl)
	sub	a, e
	ld	(hl), a
;main.c:292: move_bkg(car->x, car->y);
	ld	a, (bc)
	ldhl	sp,#4
	ld	e, (hl)
	inc	hl
	ld	d, (hl)
	push	af
	ld	a, (de)
	ldh	(_SCX_REG + 0), a
	pop	af
;C:/Users/campb/Documents/gbdk/include/gb/gb.h:846: SCX_REG=x, SCY_REG=y;
	ldh	(_SCY_REG + 0), a
;main.c:293: ball.index_x = ball.index_x + dx;
	ld	de, #_ball + 11
	ld	a, (de)
	ldhl	sp,	#10
	add	a, (hl)
	ld	c, a
	ld	(de), a
;main.c:294: ball.index_y = ball.index_y + dy;
	ld	de, #_ball + 12
	dec	hl
	ld	a, (de)
	add	a, (hl)
	ld	(de), a
;main.c:295: movegamecharacter(&ball, ball.index_x + dx, ball.index_y + dy);
	add	a, (hl)
	inc	hl
	ld	b, a
	ld	a, c
	add	a, (hl)
	push	bc
	inc	sp
	push	af
	inc	sp
	ld	de, #_ball
	push	de
	call	_movegamecharacter
;main.c:296: }
	add	sp, #15
	ret
;main.c:298: void move_ball() {
;	---------------------------------
; Function move_ball
; ---------------------------------
_move_ball::
;main.c:305: switch (ball.direction) {
	ld	hl, #_ball
	ld	c, (hl)
	ld	a, #0x0f
	sub	a, c
	jp	C, 00117$
	ld	b, #0x00
	ld	hl, #00125$
	add	hl, bc
	add	hl, bc
	add	hl, bc
	jp	(hl)
00125$:
	jp	00101$
	jp	00102$
	jp	00103$
	jp	00104$
	jp	00105$
	jp	00106$
	jp	00107$
	jp	00108$
	jp	00109$
	jp	00110$
	jp	00111$
	jp	00112$
	jp	00113$
	jp	00114$
	jp	00115$
	jp	00116$
;main.c:306: case 0:
00101$:
;main.c:307: ball.index_y -= ball.vel;
	ld	hl, #_ball + 12
	ld	c, (hl)
	ld	de, #_ball + 7
	ld	a, (de)
	ld	b, a
	ld	a, c
	sub	a, b
	ld	(hl), a
;main.c:308: ball.y -= ball.vel;
	ld	hl, #_ball + 6
	ld	c, (hl)
	ld	a, (de)
	ld	b, a
	ld	a, c
	sub	a, b
	ld	(hl), a
;main.c:309: break;
	jp	00117$
;main.c:310: case 1:
00102$:
;main.c:311: ball.index_x += 45*ball.vel/100;
	ld	hl, #(_ball + 11)
	ld	c, (hl)
	ld	a, (#(_ball + 7) + 0)
	ld	l, a
;	spillPairReg hl
;	spillPairReg hl
	rlca
	sbc	a, a
	ld	h, a
;	spillPairReg hl
;	spillPairReg hl
	ld	e, l
	ld	d, h
	add	hl, hl
	add	hl, hl
	add	hl, de
	add	hl, hl
	add	hl, de
	add	hl, hl
	add	hl, hl
	add	hl, de
	push	bc
	ld	de, #0x0064
	push	de
	push	hl
	call	__divsint
	add	sp, #4
	pop	bc
	ld	a, e
	add	a, c
	ld	(#(_ball + 11)),a
;main.c:312: ball.index_y -= 45*ball.vel/50;
	ld	hl, #(_ball + 12)
	ld	c, (hl)
	ld	a, (#(_ball + 7) + 0)
	ld	l, a
;	spillPairReg hl
;	spillPairReg hl
	rlca
	sbc	a, a
	ld	h, a
;	spillPairReg hl
;	spillPairReg hl
	ld	e, l
	ld	d, h
	add	hl, hl
	add	hl, hl
	add	hl, de
	add	hl, hl
	add	hl, de
	add	hl, hl
	add	hl, hl
	add	hl, de
	push	bc
	ld	de, #0x0032
	push	de
	push	hl
	call	__divsint
	add	sp, #4
	pop	bc
	ld	a, c
	sub	a, e
	ld	(#(_ball + 12)),a
;main.c:313: ball.x += 45*ball.vel/100;
	ld	hl, #(_ball + 5)
	ld	c, (hl)
	ld	a, (#(_ball + 7) + 0)
	ld	l, a
;	spillPairReg hl
;	spillPairReg hl
	rlca
	sbc	a, a
	ld	h, a
;	spillPairReg hl
;	spillPairReg hl
	ld	e, l
	ld	d, h
	add	hl, hl
	add	hl, hl
	add	hl, de
	add	hl, hl
	add	hl, de
	add	hl, hl
	add	hl, hl
	add	hl, de
	push	bc
	ld	de, #0x0064
	push	de
	push	hl
	call	__divsint
	add	sp, #4
	pop	bc
	ld	a, e
	add	a, c
	ld	(#(_ball + 5)),a
;main.c:314: ball.y -= 45*ball.vel/50;
	ld	hl, #(_ball + 6)
	ld	c, (hl)
	ld	a, (#(_ball + 7) + 0)
	ld	l, a
;	spillPairReg hl
;	spillPairReg hl
	rlca
	sbc	a, a
	ld	h, a
;	spillPairReg hl
;	spillPairReg hl
	ld	e, l
	ld	d, h
	add	hl, hl
	add	hl, hl
	add	hl, de
	add	hl, hl
	add	hl, de
	add	hl, hl
	add	hl, hl
	add	hl, de
	push	bc
	ld	de, #0x0032
	push	de
	push	hl
	call	__divsint
	add	sp, #4
	pop	bc
	ld	a, c
	sub	a, e
	ld	(#(_ball + 6)),a
;main.c:315: break;
	jp	00117$
;main.c:316: case 2:
00103$:
;main.c:317: ball.index_x += 71*ball.vel/100;
	ld	hl, #(_ball + 11)
	ld	c, (hl)
	ld	a, (#(_ball + 7) + 0)
	ld	l, a
;	spillPairReg hl
;	spillPairReg hl
	rlca
	sbc	a, a
	ld	h, a
;	spillPairReg hl
;	spillPairReg hl
	ld	e, l
	ld	d, h
	add	hl, hl
	add	hl, hl
	add	hl, hl
	add	hl, hl
	add	hl, de
	add	hl, hl
	add	hl, de
	add	hl, hl
	add	hl, de
	push	bc
	ld	de, #0x0064
	push	de
	push	hl
	call	__divsint
	add	sp, #4
	pop	bc
	ld	a, e
	add	a, c
	ld	(#(_ball + 11)),a
;main.c:318: ball.index_y -= 71*ball.vel/100;
	ld	hl, #(_ball + 12)
	ld	c, (hl)
	ld	a, (#(_ball + 7) + 0)
	ld	l, a
;	spillPairReg hl
;	spillPairReg hl
	rlca
	sbc	a, a
	ld	h, a
;	spillPairReg hl
;	spillPairReg hl
	ld	e, l
	ld	d, h
	add	hl, hl
	add	hl, hl
	add	hl, hl
	add	hl, hl
	add	hl, de
	add	hl, hl
	add	hl, de
	add	hl, hl
	add	hl, de
	push	bc
	ld	de, #0x0064
	push	de
	push	hl
	call	__divsint
	add	sp, #4
	pop	bc
	ld	a, c
	sub	a, e
	ld	(#(_ball + 12)),a
;main.c:319: ball.x += 71*ball.vel/100;
	ld	hl, #(_ball + 5)
	ld	c, (hl)
	ld	a, (#(_ball + 7) + 0)
	ld	l, a
;	spillPairReg hl
;	spillPairReg hl
	rlca
	sbc	a, a
	ld	h, a
;	spillPairReg hl
;	spillPairReg hl
	ld	e, l
	ld	d, h
	add	hl, hl
	add	hl, hl
	add	hl, hl
	add	hl, hl
	add	hl, de
	add	hl, hl
	add	hl, de
	add	hl, hl
	add	hl, de
	push	bc
	ld	de, #0x0064
	push	de
	push	hl
	call	__divsint
	add	sp, #4
	pop	bc
	ld	a, e
	add	a, c
	ld	(#(_ball + 5)),a
;main.c:320: ball.y -= 71*ball.vel/100;
	ld	hl, #(_ball + 6)
	ld	c, (hl)
	ld	a, (#(_ball + 7) + 0)
	ld	l, a
;	spillPairReg hl
;	spillPairReg hl
	rlca
	sbc	a, a
	ld	h, a
;	spillPairReg hl
;	spillPairReg hl
	ld	e, l
	ld	d, h
	add	hl, hl
	add	hl, hl
	add	hl, hl
	add	hl, hl
	add	hl, de
	add	hl, hl
	add	hl, de
	add	hl, hl
	add	hl, de
	push	bc
	ld	de, #0x0064
	push	de
	push	hl
	call	__divsint
	add	sp, #4
	pop	bc
	ld	a, c
	sub	a, e
	ld	(#(_ball + 6)),a
;main.c:321: break;
	jp	00117$
;main.c:322: case 3:
00104$:
;main.c:323: ball.index_x += 45*ball.vel/50;
	ld	hl, #(_ball + 11)
	ld	c, (hl)
	ld	a, (#(_ball + 7) + 0)
	ld	l, a
;	spillPairReg hl
;	spillPairReg hl
	rlca
	sbc	a, a
	ld	h, a
;	spillPairReg hl
;	spillPairReg hl
	ld	e, l
	ld	d, h
	add	hl, hl
	add	hl, hl
	add	hl, de
	add	hl, hl
	add	hl, de
	add	hl, hl
	add	hl, hl
	add	hl, de
	push	bc
	ld	de, #0x0032
	push	de
	push	hl
	call	__divsint
	add	sp, #4
	pop	bc
	ld	a, e
	add	a, c
	ld	(#(_ball + 11)),a
;main.c:324: ball.index_y -= 45*ball.vel/100;
	ld	hl, #(_ball + 12)
	ld	c, (hl)
	ld	a, (#(_ball + 7) + 0)
	ld	l, a
;	spillPairReg hl
;	spillPairReg hl
	rlca
	sbc	a, a
	ld	h, a
;	spillPairReg hl
;	spillPairReg hl
	ld	e, l
	ld	d, h
	add	hl, hl
	add	hl, hl
	add	hl, de
	add	hl, hl
	add	hl, de
	add	hl, hl
	add	hl, hl
	add	hl, de
	push	bc
	ld	de, #0x0064
	push	de
	push	hl
	call	__divsint
	add	sp, #4
	pop	bc
	ld	a, c
	sub	a, e
	ld	(#(_ball + 12)),a
;main.c:325: ball.x += 45*ball.vel/50;
	ld	hl, #(_ball + 5)
	ld	c, (hl)
	ld	a, (#(_ball + 7) + 0)
	ld	l, a
;	spillPairReg hl
;	spillPairReg hl
	rlca
	sbc	a, a
	ld	h, a
;	spillPairReg hl
;	spillPairReg hl
	ld	e, l
	ld	d, h
	add	hl, hl
	add	hl, hl
	add	hl, de
	add	hl, hl
	add	hl, de
	add	hl, hl
	add	hl, hl
	add	hl, de
	push	bc
	ld	de, #0x0032
	push	de
	push	hl
	call	__divsint
	add	sp, #4
	pop	bc
	ld	a, e
	add	a, c
	ld	(#(_ball + 5)),a
;main.c:326: ball.y -= 45*ball.vel/100;
	ld	hl, #(_ball + 6)
	ld	c, (hl)
	ld	a, (#(_ball + 7) + 0)
	ld	l, a
;	spillPairReg hl
;	spillPairReg hl
	rlca
	sbc	a, a
	ld	h, a
;	spillPairReg hl
;	spillPairReg hl
	ld	e, l
	ld	d, h
	add	hl, hl
	add	hl, hl
	add	hl, de
	add	hl, hl
	add	hl, de
	add	hl, hl
	add	hl, hl
	add	hl, de
	push	bc
	ld	de, #0x0064
	push	de
	push	hl
	call	__divsint
	add	sp, #4
	pop	bc
	ld	a, c
	sub	a, e
	ld	(#(_ball + 6)),a
;main.c:327: break;
	jp	00117$
;main.c:328: case 4:
00105$:
;main.c:329: ball.index_x += ball.vel;
	ld	hl, #_ball + 11
	ld	c, (hl)
	ld	de, #_ball + 7
	ld	a, (de)
	add	a, c
	ld	(hl), a
;main.c:330: ball.x += ball.vel;
	ld	hl, #_ball + 5
	ld	c, (hl)
	ld	a, (de)
	add	a, c
	ld	(hl), a
;main.c:331: break;
	jp	00117$
;main.c:332: case 5:
00106$:
;main.c:333: ball.index_x += 45*ball.vel/50;
	ld	hl, #(_ball + 11)
	ld	c, (hl)
	ld	a, (#(_ball + 7) + 0)
	ld	l, a
;	spillPairReg hl
;	spillPairReg hl
	rlca
	sbc	a, a
	ld	h, a
;	spillPairReg hl
;	spillPairReg hl
	ld	e, l
	ld	d, h
	add	hl, hl
	add	hl, hl
	add	hl, de
	add	hl, hl
	add	hl, de
	add	hl, hl
	add	hl, hl
	add	hl, de
	push	bc
	ld	de, #0x0032
	push	de
	push	hl
	call	__divsint
	add	sp, #4
	pop	bc
	ld	a, e
	add	a, c
	ld	(#(_ball + 11)),a
;main.c:334: ball.index_y += 45*ball.vel/100;
	ld	hl, #(_ball + 12)
	ld	c, (hl)
	ld	a, (#(_ball + 7) + 0)
	ld	l, a
;	spillPairReg hl
;	spillPairReg hl
	rlca
	sbc	a, a
	ld	h, a
;	spillPairReg hl
;	spillPairReg hl
	ld	e, l
	ld	d, h
	add	hl, hl
	add	hl, hl
	add	hl, de
	add	hl, hl
	add	hl, de
	add	hl, hl
	add	hl, hl
	add	hl, de
	push	bc
	ld	de, #0x0064
	push	de
	push	hl
	call	__divsint
	add	sp, #4
	pop	bc
	ld	a, e
	add	a, c
	ld	(#(_ball + 12)),a
;main.c:335: ball.x += 45*ball.vel/50;
	ld	hl, #(_ball + 5)
	ld	c, (hl)
	ld	a, (#(_ball + 7) + 0)
	ld	l, a
;	spillPairReg hl
;	spillPairReg hl
	rlca
	sbc	a, a
	ld	h, a
;	spillPairReg hl
;	spillPairReg hl
	ld	e, l
	ld	d, h
	add	hl, hl
	add	hl, hl
	add	hl, de
	add	hl, hl
	add	hl, de
	add	hl, hl
	add	hl, hl
	add	hl, de
	push	bc
	ld	de, #0x0032
	push	de
	push	hl
	call	__divsint
	add	sp, #4
	pop	bc
	ld	a, e
	add	a, c
	ld	(#(_ball + 5)),a
;main.c:336: ball.y += 45*ball.vel/100;
	ld	hl, #(_ball + 6)
	ld	c, (hl)
	ld	a, (#(_ball + 7) + 0)
	ld	l, a
;	spillPairReg hl
;	spillPairReg hl
	rlca
	sbc	a, a
	ld	h, a
;	spillPairReg hl
;	spillPairReg hl
	ld	e, l
	ld	d, h
	add	hl, hl
	add	hl, hl
	add	hl, de
	add	hl, hl
	add	hl, de
	add	hl, hl
	add	hl, hl
	add	hl, de
	push	bc
	ld	de, #0x0064
	push	de
	push	hl
	call	__divsint
	add	sp, #4
	pop	bc
	ld	a, e
	add	a, c
	ld	(#(_ball + 6)),a
;main.c:337: break;
	jp	00117$
;main.c:338: case 6:
00107$:
;main.c:339: ball.index_x += 71*ball.vel/100;
	ld	hl, #(_ball + 11)
	ld	c, (hl)
	ld	a, (#(_ball + 7) + 0)
	ld	l, a
;	spillPairReg hl
;	spillPairReg hl
	rlca
	sbc	a, a
	ld	h, a
;	spillPairReg hl
;	spillPairReg hl
	ld	e, l
	ld	d, h
	add	hl, hl
	add	hl, hl
	add	hl, hl
	add	hl, hl
	add	hl, de
	add	hl, hl
	add	hl, de
	add	hl, hl
	add	hl, de
	push	bc
	ld	de, #0x0064
	push	de
	push	hl
	call	__divsint
	add	sp, #4
	pop	bc
	ld	a, e
	add	a, c
	ld	(#(_ball + 11)),a
;main.c:340: ball.index_y += 71*ball.vel/100;
	ld	hl, #(_ball + 12)
	ld	c, (hl)
	ld	a, (#(_ball + 7) + 0)
	ld	l, a
;	spillPairReg hl
;	spillPairReg hl
	rlca
	sbc	a, a
	ld	h, a
;	spillPairReg hl
;	spillPairReg hl
	ld	e, l
	ld	d, h
	add	hl, hl
	add	hl, hl
	add	hl, hl
	add	hl, hl
	add	hl, de
	add	hl, hl
	add	hl, de
	add	hl, hl
	add	hl, de
	push	bc
	ld	de, #0x0064
	push	de
	push	hl
	call	__divsint
	add	sp, #4
	pop	bc
	ld	a, e
	add	a, c
	ld	(#(_ball + 12)),a
;main.c:341: ball.x += 71*ball.vel/100;
	ld	hl, #(_ball + 5)
	ld	c, (hl)
	ld	a, (#(_ball + 7) + 0)
	ld	l, a
;	spillPairReg hl
;	spillPairReg hl
	rlca
	sbc	a, a
	ld	h, a
;	spillPairReg hl
;	spillPairReg hl
	ld	e, l
	ld	d, h
	add	hl, hl
	add	hl, hl
	add	hl, hl
	add	hl, hl
	add	hl, de
	add	hl, hl
	add	hl, de
	add	hl, hl
	add	hl, de
	push	bc
	ld	de, #0x0064
	push	de
	push	hl
	call	__divsint
	add	sp, #4
	pop	bc
	ld	a, e
	add	a, c
	ld	(#(_ball + 5)),a
;main.c:342: ball.y += 71*ball.vel/100;
	ld	hl, #(_ball + 6)
	ld	c, (hl)
	ld	a, (#(_ball + 7) + 0)
	ld	l, a
;	spillPairReg hl
;	spillPairReg hl
	rlca
	sbc	a, a
	ld	h, a
;	spillPairReg hl
;	spillPairReg hl
	ld	e, l
	ld	d, h
	add	hl, hl
	add	hl, hl
	add	hl, hl
	add	hl, hl
	add	hl, de
	add	hl, hl
	add	hl, de
	add	hl, hl
	add	hl, de
	push	bc
	ld	de, #0x0064
	push	de
	push	hl
	call	__divsint
	add	sp, #4
	pop	bc
	ld	a, e
	add	a, c
	ld	(#(_ball + 6)),a
;main.c:343: break;
	jp	00117$
;main.c:344: case 7:
00108$:
;main.c:345: ball.index_x += 45*ball.vel/100;
	ld	hl, #(_ball + 11)
	ld	c, (hl)
	ld	a, (#(_ball + 7) + 0)
	ld	l, a
;	spillPairReg hl
;	spillPairReg hl
	rlca
	sbc	a, a
	ld	h, a
;	spillPairReg hl
;	spillPairReg hl
	ld	e, l
	ld	d, h
	add	hl, hl
	add	hl, hl
	add	hl, de
	add	hl, hl
	add	hl, de
	add	hl, hl
	add	hl, hl
	add	hl, de
	push	bc
	ld	de, #0x0064
	push	de
	push	hl
	call	__divsint
	add	sp, #4
	pop	bc
	ld	a, e
	add	a, c
	ld	(#(_ball + 11)),a
;main.c:346: ball.index_y += 45*ball.vel/50;
	ld	hl, #(_ball + 12)
	ld	c, (hl)
	ld	a, (#(_ball + 7) + 0)
	ld	l, a
;	spillPairReg hl
;	spillPairReg hl
	rlca
	sbc	a, a
	ld	h, a
;	spillPairReg hl
;	spillPairReg hl
	ld	e, l
	ld	d, h
	add	hl, hl
	add	hl, hl
	add	hl, de
	add	hl, hl
	add	hl, de
	add	hl, hl
	add	hl, hl
	add	hl, de
	push	bc
	ld	de, #0x0032
	push	de
	push	hl
	call	__divsint
	add	sp, #4
	pop	bc
	ld	a, e
	add	a, c
	ld	(#(_ball + 12)),a
;main.c:347: ball.x += 45*ball.vel/100;
	ld	hl, #(_ball + 5)
	ld	c, (hl)
	ld	a, (#(_ball + 7) + 0)
	ld	l, a
;	spillPairReg hl
;	spillPairReg hl
	rlca
	sbc	a, a
	ld	h, a
;	spillPairReg hl
;	spillPairReg hl
	ld	e, l
	ld	d, h
	add	hl, hl
	add	hl, hl
	add	hl, de
	add	hl, hl
	add	hl, de
	add	hl, hl
	add	hl, hl
	add	hl, de
	push	bc
	ld	de, #0x0064
	push	de
	push	hl
	call	__divsint
	add	sp, #4
	pop	bc
	ld	a, e
	add	a, c
	ld	(#(_ball + 5)),a
;main.c:348: ball.y += 45*ball.vel/50;
	ld	hl, #(_ball + 6)
	ld	c, (hl)
	ld	a, (#(_ball + 7) + 0)
	ld	l, a
;	spillPairReg hl
;	spillPairReg hl
	rlca
	sbc	a, a
	ld	h, a
;	spillPairReg hl
;	spillPairReg hl
	ld	e, l
	ld	d, h
	add	hl, hl
	add	hl, hl
	add	hl, de
	add	hl, hl
	add	hl, de
	add	hl, hl
	add	hl, hl
	add	hl, de
	push	bc
	ld	de, #0x0032
	push	de
	push	hl
	call	__divsint
	add	sp, #4
	pop	bc
	ld	a, e
	add	a, c
	ld	(#(_ball + 6)),a
;main.c:349: break;
	jp	00117$
;main.c:350: case 8:
00109$:
;main.c:351: ball.index_y += ball.vel;
	ld	hl, #_ball + 12
	ld	c, (hl)
	ld	de, #_ball + 7
	ld	a, (de)
	add	a, c
	ld	(hl), a
;main.c:352: ball.y += ball.vel;
	ld	hl, #_ball + 6
	ld	c, (hl)
	ld	a, (de)
	add	a, c
	ld	(hl), a
;main.c:353: break;
	jp	00117$
;main.c:354: case 9:
00110$:
;main.c:355: ball.index_x -= 45*ball.vel/100;
	ld	hl, #(_ball + 11)
	ld	c, (hl)
	ld	a, (#(_ball + 7) + 0)
	ld	l, a
;	spillPairReg hl
;	spillPairReg hl
	rlca
	sbc	a, a
	ld	h, a
;	spillPairReg hl
;	spillPairReg hl
	ld	e, l
	ld	d, h
	add	hl, hl
	add	hl, hl
	add	hl, de
	add	hl, hl
	add	hl, de
	add	hl, hl
	add	hl, hl
	add	hl, de
	push	bc
	ld	de, #0x0064
	push	de
	push	hl
	call	__divsint
	add	sp, #4
	pop	bc
	ld	a, c
	sub	a, e
	ld	(#(_ball + 11)),a
;main.c:356: ball.index_y += 45*ball.vel/50;
	ld	hl, #(_ball + 12)
	ld	c, (hl)
	ld	a, (#(_ball + 7) + 0)
	ld	l, a
;	spillPairReg hl
;	spillPairReg hl
	rlca
	sbc	a, a
	ld	h, a
;	spillPairReg hl
;	spillPairReg hl
	ld	e, l
	ld	d, h
	add	hl, hl
	add	hl, hl
	add	hl, de
	add	hl, hl
	add	hl, de
	add	hl, hl
	add	hl, hl
	add	hl, de
	push	bc
	ld	de, #0x0032
	push	de
	push	hl
	call	__divsint
	add	sp, #4
	pop	bc
	ld	a, e
	add	a, c
	ld	(#(_ball + 12)),a
;main.c:357: ball.x -= 45*ball.vel/100;
	ld	hl, #(_ball + 5)
	ld	c, (hl)
	ld	a, (#(_ball + 7) + 0)
	ld	l, a
;	spillPairReg hl
;	spillPairReg hl
	rlca
	sbc	a, a
	ld	h, a
;	spillPairReg hl
;	spillPairReg hl
	ld	e, l
	ld	d, h
	add	hl, hl
	add	hl, hl
	add	hl, de
	add	hl, hl
	add	hl, de
	add	hl, hl
	add	hl, hl
	add	hl, de
	push	bc
	ld	de, #0x0064
	push	de
	push	hl
	call	__divsint
	add	sp, #4
	pop	bc
	ld	a, c
	sub	a, e
	ld	(#(_ball + 5)),a
;main.c:358: ball.y += 45*ball.vel/50;
	ld	hl, #(_ball + 6)
	ld	c, (hl)
	ld	a, (#(_ball + 7) + 0)
	ld	l, a
;	spillPairReg hl
;	spillPairReg hl
	rlca
	sbc	a, a
	ld	h, a
;	spillPairReg hl
;	spillPairReg hl
	ld	e, l
	ld	d, h
	add	hl, hl
	add	hl, hl
	add	hl, de
	add	hl, hl
	add	hl, de
	add	hl, hl
	add	hl, hl
	add	hl, de
	push	bc
	ld	de, #0x0032
	push	de
	push	hl
	call	__divsint
	add	sp, #4
	pop	bc
	ld	a, e
	add	a, c
	ld	(#(_ball + 6)),a
;main.c:359: break;
	jp	00117$
;main.c:360: case 10:
00111$:
;main.c:361: ball.index_x -= 71*ball.vel/100;
	ld	hl, #(_ball + 11)
	ld	c, (hl)
	ld	a, (#(_ball + 7) + 0)
	ld	l, a
;	spillPairReg hl
;	spillPairReg hl
	rlca
	sbc	a, a
	ld	h, a
;	spillPairReg hl
;	spillPairReg hl
	ld	e, l
	ld	d, h
	add	hl, hl
	add	hl, hl
	add	hl, hl
	add	hl, hl
	add	hl, de
	add	hl, hl
	add	hl, de
	add	hl, hl
	add	hl, de
	push	bc
	ld	de, #0x0064
	push	de
	push	hl
	call	__divsint
	add	sp, #4
	pop	bc
	ld	a, c
	sub	a, e
	ld	(#(_ball + 11)),a
;main.c:362: ball.index_y += 71*ball.vel/100;
	ld	hl, #(_ball + 12)
	ld	c, (hl)
	ld	a, (#(_ball + 7) + 0)
	ld	l, a
;	spillPairReg hl
;	spillPairReg hl
	rlca
	sbc	a, a
	ld	h, a
;	spillPairReg hl
;	spillPairReg hl
	ld	e, l
	ld	d, h
	add	hl, hl
	add	hl, hl
	add	hl, hl
	add	hl, hl
	add	hl, de
	add	hl, hl
	add	hl, de
	add	hl, hl
	add	hl, de
	push	bc
	ld	de, #0x0064
	push	de
	push	hl
	call	__divsint
	add	sp, #4
	pop	bc
	ld	a, e
	add	a, c
	ld	(#(_ball + 12)),a
;main.c:363: ball.x -= 71*ball.vel/100;
	ld	hl, #(_ball + 5)
	ld	c, (hl)
	ld	a, (#(_ball + 7) + 0)
	ld	l, a
;	spillPairReg hl
;	spillPairReg hl
	rlca
	sbc	a, a
	ld	h, a
;	spillPairReg hl
;	spillPairReg hl
	ld	e, l
	ld	d, h
	add	hl, hl
	add	hl, hl
	add	hl, hl
	add	hl, hl
	add	hl, de
	add	hl, hl
	add	hl, de
	add	hl, hl
	add	hl, de
	push	bc
	ld	de, #0x0064
	push	de
	push	hl
	call	__divsint
	add	sp, #4
	pop	bc
	ld	a, c
	sub	a, e
	ld	(#(_ball + 5)),a
;main.c:364: ball.y += 71*ball.vel/100;
	ld	hl, #(_ball + 6)
	ld	c, (hl)
	ld	a, (#(_ball + 7) + 0)
	ld	l, a
;	spillPairReg hl
;	spillPairReg hl
	rlca
	sbc	a, a
	ld	h, a
;	spillPairReg hl
;	spillPairReg hl
	ld	e, l
	ld	d, h
	add	hl, hl
	add	hl, hl
	add	hl, hl
	add	hl, hl
	add	hl, de
	add	hl, hl
	add	hl, de
	add	hl, hl
	add	hl, de
	push	bc
	ld	de, #0x0064
	push	de
	push	hl
	call	__divsint
	add	sp, #4
	pop	bc
	ld	a, e
	add	a, c
	ld	(#(_ball + 6)),a
;main.c:365: break;
	jp	00117$
;main.c:366: case 11:
00112$:
;main.c:367: ball.index_x -= 45*ball.vel/50;
	ld	hl, #(_ball + 11)
	ld	c, (hl)
	ld	a, (#(_ball + 7) + 0)
	ld	l, a
;	spillPairReg hl
;	spillPairReg hl
	rlca
	sbc	a, a
	ld	h, a
;	spillPairReg hl
;	spillPairReg hl
	ld	e, l
	ld	d, h
	add	hl, hl
	add	hl, hl
	add	hl, de
	add	hl, hl
	add	hl, de
	add	hl, hl
	add	hl, hl
	add	hl, de
	push	bc
	ld	de, #0x0032
	push	de
	push	hl
	call	__divsint
	add	sp, #4
	pop	bc
	ld	a, c
	sub	a, e
	ld	(#(_ball + 11)),a
;main.c:368: ball.index_y += 45*ball.vel/100;
	ld	hl, #(_ball + 12)
	ld	c, (hl)
	ld	a, (#(_ball + 7) + 0)
	ld	l, a
;	spillPairReg hl
;	spillPairReg hl
	rlca
	sbc	a, a
	ld	h, a
;	spillPairReg hl
;	spillPairReg hl
	ld	e, l
	ld	d, h
	add	hl, hl
	add	hl, hl
	add	hl, de
	add	hl, hl
	add	hl, de
	add	hl, hl
	add	hl, hl
	add	hl, de
	push	bc
	ld	de, #0x0064
	push	de
	push	hl
	call	__divsint
	add	sp, #4
	pop	bc
	ld	a, e
	add	a, c
	ld	(#(_ball + 12)),a
;main.c:369: ball.x -= 45*ball.vel/50;
	ld	hl, #(_ball + 5)
	ld	c, (hl)
	ld	a, (#(_ball + 7) + 0)
	ld	l, a
;	spillPairReg hl
;	spillPairReg hl
	rlca
	sbc	a, a
	ld	h, a
;	spillPairReg hl
;	spillPairReg hl
	ld	e, l
	ld	d, h
	add	hl, hl
	add	hl, hl
	add	hl, de
	add	hl, hl
	add	hl, de
	add	hl, hl
	add	hl, hl
	add	hl, de
	push	bc
	ld	de, #0x0032
	push	de
	push	hl
	call	__divsint
	add	sp, #4
	pop	bc
	ld	a, c
	sub	a, e
	ld	(#(_ball + 5)),a
;main.c:370: ball.y += 45*ball.vel/100;
	ld	hl, #(_ball + 6)
	ld	c, (hl)
	ld	a, (#(_ball + 7) + 0)
	ld	l, a
;	spillPairReg hl
;	spillPairReg hl
	rlca
	sbc	a, a
	ld	h, a
;	spillPairReg hl
;	spillPairReg hl
	ld	e, l
	ld	d, h
	add	hl, hl
	add	hl, hl
	add	hl, de
	add	hl, hl
	add	hl, de
	add	hl, hl
	add	hl, hl
	add	hl, de
	push	bc
	ld	de, #0x0064
	push	de
	push	hl
	call	__divsint
	add	sp, #4
	pop	bc
	ld	a, e
	add	a, c
	ld	(#(_ball + 6)),a
;main.c:371: break;
	jp	00117$
;main.c:372: case 12:
00113$:
;main.c:373: ball.index_x -= ball.vel;
	ld	hl, #_ball + 11
	ld	c, (hl)
	ld	de, #_ball + 7
	ld	a, (de)
	ld	b, a
	ld	a, c
	sub	a, b
	ld	(hl), a
;main.c:374: ball.x -= ball.vel;
	ld	hl, #_ball + 5
	ld	c, (hl)
	ld	a, (de)
	ld	b, a
	ld	a, c
	sub	a, b
	ld	(hl), a
;main.c:375: break;
	jp	00117$
;main.c:376: case 13:
00114$:
;main.c:377: ball.index_x -= 45*ball.vel/50;
	ld	hl, #(_ball + 11)
	ld	c, (hl)
	ld	a, (#(_ball + 7) + 0)
	ld	l, a
;	spillPairReg hl
;	spillPairReg hl
	rlca
	sbc	a, a
	ld	h, a
;	spillPairReg hl
;	spillPairReg hl
	ld	e, l
	ld	d, h
	add	hl, hl
	add	hl, hl
	add	hl, de
	add	hl, hl
	add	hl, de
	add	hl, hl
	add	hl, hl
	add	hl, de
	push	bc
	ld	de, #0x0032
	push	de
	push	hl
	call	__divsint
	add	sp, #4
	pop	bc
	ld	a, c
	sub	a, e
	ld	(#(_ball + 11)),a
;main.c:378: ball.index_y -= 45*ball.vel/100;
	ld	hl, #(_ball + 12)
	ld	c, (hl)
	ld	a, (#(_ball + 7) + 0)
	ld	l, a
;	spillPairReg hl
;	spillPairReg hl
	rlca
	sbc	a, a
	ld	h, a
;	spillPairReg hl
;	spillPairReg hl
	ld	e, l
	ld	d, h
	add	hl, hl
	add	hl, hl
	add	hl, de
	add	hl, hl
	add	hl, de
	add	hl, hl
	add	hl, hl
	add	hl, de
	push	bc
	ld	de, #0x0064
	push	de
	push	hl
	call	__divsint
	add	sp, #4
	pop	bc
	ld	a, c
	sub	a, e
	ld	(#(_ball + 12)),a
;main.c:379: ball.x -= 45*ball.vel/50;
	ld	hl, #(_ball + 5)
	ld	c, (hl)
	ld	a, (#(_ball + 7) + 0)
	ld	l, a
;	spillPairReg hl
;	spillPairReg hl
	rlca
	sbc	a, a
	ld	h, a
;	spillPairReg hl
;	spillPairReg hl
	ld	e, l
	ld	d, h
	add	hl, hl
	add	hl, hl
	add	hl, de
	add	hl, hl
	add	hl, de
	add	hl, hl
	add	hl, hl
	add	hl, de
	push	bc
	ld	de, #0x0032
	push	de
	push	hl
	call	__divsint
	add	sp, #4
	pop	bc
	ld	a, c
	sub	a, e
	ld	(#(_ball + 5)),a
;main.c:380: ball.y -= 45*ball.vel/100;
	ld	hl, #(_ball + 6)
	ld	c, (hl)
	ld	a, (#(_ball + 7) + 0)
	ld	l, a
;	spillPairReg hl
;	spillPairReg hl
	rlca
	sbc	a, a
	ld	h, a
;	spillPairReg hl
;	spillPairReg hl
	ld	e, l
	ld	d, h
	add	hl, hl
	add	hl, hl
	add	hl, de
	add	hl, hl
	add	hl, de
	add	hl, hl
	add	hl, hl
	add	hl, de
	push	bc
	ld	de, #0x0064
	push	de
	push	hl
	call	__divsint
	add	sp, #4
	pop	bc
	ld	a, c
	sub	a, e
	ld	(#(_ball + 6)),a
;main.c:381: break;
	jp	00117$
;main.c:382: case 14:
00115$:
;main.c:383: ball.index_x -= 71*ball.vel/100;
	ld	hl, #(_ball + 11)
	ld	c, (hl)
	ld	a, (#(_ball + 7) + 0)
	ld	l, a
;	spillPairReg hl
;	spillPairReg hl
	rlca
	sbc	a, a
	ld	h, a
;	spillPairReg hl
;	spillPairReg hl
	ld	e, l
	ld	d, h
	add	hl, hl
	add	hl, hl
	add	hl, hl
	add	hl, hl
	add	hl, de
	add	hl, hl
	add	hl, de
	add	hl, hl
	add	hl, de
	push	bc
	ld	de, #0x0064
	push	de
	push	hl
	call	__divsint
	add	sp, #4
	pop	bc
	ld	a, c
	sub	a, e
	ld	(#(_ball + 11)),a
;main.c:384: ball.index_y -= 71*ball.vel/100;
	ld	hl, #(_ball + 12)
	ld	c, (hl)
	ld	a, (#(_ball + 7) + 0)
	ld	l, a
;	spillPairReg hl
;	spillPairReg hl
	rlca
	sbc	a, a
	ld	h, a
;	spillPairReg hl
;	spillPairReg hl
	ld	e, l
	ld	d, h
	add	hl, hl
	add	hl, hl
	add	hl, hl
	add	hl, hl
	add	hl, de
	add	hl, hl
	add	hl, de
	add	hl, hl
	add	hl, de
	push	bc
	ld	de, #0x0064
	push	de
	push	hl
	call	__divsint
	add	sp, #4
	pop	bc
	ld	a, c
	sub	a, e
	ld	(#(_ball + 12)),a
;main.c:385: ball.x -= 71*ball.vel/100;
	ld	hl, #(_ball + 5)
	ld	c, (hl)
	ld	a, (#(_ball + 7) + 0)
	ld	l, a
;	spillPairReg hl
;	spillPairReg hl
	rlca
	sbc	a, a
	ld	h, a
;	spillPairReg hl
;	spillPairReg hl
	ld	e, l
	ld	d, h
	add	hl, hl
	add	hl, hl
	add	hl, hl
	add	hl, hl
	add	hl, de
	add	hl, hl
	add	hl, de
	add	hl, hl
	add	hl, de
	push	bc
	ld	de, #0x0064
	push	de
	push	hl
	call	__divsint
	add	sp, #4
	pop	bc
	ld	a, c
	sub	a, e
	ld	(#(_ball + 5)),a
;main.c:386: ball.y -= 71*ball.vel/100;
	ld	hl, #(_ball + 6)
	ld	c, (hl)
	ld	a, (#(_ball + 7) + 0)
	ld	l, a
;	spillPairReg hl
;	spillPairReg hl
	rlca
	sbc	a, a
	ld	h, a
;	spillPairReg hl
;	spillPairReg hl
	ld	e, l
	ld	d, h
	add	hl, hl
	add	hl, hl
	add	hl, hl
	add	hl, hl
	add	hl, de
	add	hl, hl
	add	hl, de
	add	hl, hl
	add	hl, de
	push	bc
	ld	de, #0x0064
	push	de
	push	hl
	call	__divsint
	add	sp, #4
	pop	bc
	ld	a, c
	sub	a, e
	ld	(#(_ball + 6)),a
;main.c:387: break;
	jp	00117$
;main.c:388: case 15:
00116$:
;main.c:389: ball.index_x -= 45*ball.vel/100;
	ld	hl, #(_ball + 11)
	ld	c, (hl)
	ld	a, (#(_ball + 7) + 0)
	ld	l, a
;	spillPairReg hl
;	spillPairReg hl
	rlca
	sbc	a, a
	ld	h, a
;	spillPairReg hl
;	spillPairReg hl
	ld	e, l
	ld	d, h
	add	hl, hl
	add	hl, hl
	add	hl, de
	add	hl, hl
	add	hl, de
	add	hl, hl
	add	hl, hl
	add	hl, de
	push	bc
	ld	de, #0x0064
	push	de
	push	hl
	call	__divsint
	add	sp, #4
	pop	bc
	ld	a, c
	sub	a, e
	ld	(#(_ball + 11)),a
;main.c:390: ball.index_y -= 45*ball.vel/50;
	ld	hl, #(_ball + 12)
	ld	c, (hl)
	ld	a, (#(_ball + 7) + 0)
	ld	l, a
;	spillPairReg hl
;	spillPairReg hl
	rlca
	sbc	a, a
	ld	h, a
;	spillPairReg hl
;	spillPairReg hl
	ld	e, l
	ld	d, h
	add	hl, hl
	add	hl, hl
	add	hl, de
	add	hl, hl
	add	hl, de
	add	hl, hl
	add	hl, hl
	add	hl, de
	push	bc
	ld	de, #0x0032
	push	de
	push	hl
	call	__divsint
	add	sp, #4
	pop	bc
	ld	a, c
	sub	a, e
	ld	(#(_ball + 12)),a
;main.c:391: ball.x -= 45*ball.vel/100;
	ld	hl, #(_ball + 5)
	ld	c, (hl)
	ld	a, (#(_ball + 7) + 0)
	ld	l, a
;	spillPairReg hl
;	spillPairReg hl
	rlca
	sbc	a, a
	ld	h, a
;	spillPairReg hl
;	spillPairReg hl
	ld	e, l
	ld	d, h
	add	hl, hl
	add	hl, hl
	add	hl, de
	add	hl, hl
	add	hl, de
	add	hl, hl
	add	hl, hl
	add	hl, de
	push	bc
	ld	de, #0x0064
	push	de
	push	hl
	call	__divsint
	add	sp, #4
	pop	bc
	ld	a, c
	sub	a, e
	ld	(#(_ball + 5)),a
;main.c:392: ball.y -= 45*ball.vel/50;
	ld	hl, #(_ball + 6)
	ld	c, (hl)
	ld	a, (#(_ball + 7) + 0)
	ld	l, a
;	spillPairReg hl
;	spillPairReg hl
	rlca
	sbc	a, a
	ld	h, a
;	spillPairReg hl
;	spillPairReg hl
	ld	e, l
	ld	d, h
	add	hl, hl
	add	hl, hl
	add	hl, de
	add	hl, hl
	add	hl, de
	add	hl, hl
	add	hl, hl
	add	hl, de
	push	bc
	ld	de, #0x0032
	push	de
	push	hl
	call	__divsint
	add	sp, #4
	pop	bc
	ld	a, c
	sub	a, e
	ld	(#(_ball + 6)),a
;main.c:394: }
00117$:
;main.c:395: movegamecharacter(&ball, ball.index_x, ball.index_y);
	ld	hl, #_ball + 12
	ld	b, (hl)
	ld	a, (#(_ball + 11) + 0)
	push	bc
	inc	sp
	push	af
	inc	sp
	ld	de, #_ball
	push	de
	call	_movegamecharacter
	add	sp, #4
;main.c:396: }
	ret
;main.c:398: void reset_car() {
;	---------------------------------
; Function reset_car
; ---------------------------------
_reset_car::
;main.c:399: car1.x = 64;
	ld	hl, #(_car1 + 5)
	ld	(hl), #0x40
;main.c:400: car1.y = 64;
	ld	bc, #_car1 + 6
	ld	a, #0x40
	ld	(bc), a
;main.c:401: movegamecharacter(&car1, car1.x, car1.y);
	ld	a, (bc)
	ld	hl, #(_car1 + 5)
	ld	l, (hl)
;	spillPairReg hl
	push	bc
	push	af
	ld	a, l
	inc	sp
	push	af
	inc	sp
	ld	de, #_car1
	push	de
	call	_movegamecharacter
	add	sp, #4
	pop	bc
;main.c:402: move_bkg(car1.x, car1.y);
	ld	a, (bc)
	ld	a, (#(_car1 + 5) + 0)
	ldh	(_SCX_REG + 0), a
;C:/Users/campb/Documents/gbdk/include/gb/gb.h:846: SCX_REG=x, SCY_REG=y;
	ldh	(_SCY_REG + 0), a
;main.c:402: move_bkg(car1.x, car1.y);
;main.c:403: }
	ret
;main.c:405: void hit_ball() {
;	---------------------------------
; Function hit_ball
; ---------------------------------
_hit_ball::
;main.c:406: ball.vel = 2*car1.vel/3;
	ld	a, (#(_car1 + 7) + 0)
	ld	l, a
;	spillPairReg hl
;	spillPairReg hl
	rlca
	sbc	a, a
	ld	h, a
	add	hl, hl
	ld	de, #0x0003
	push	de
	push	hl
	call	__divsint
	add	sp, #4
	ld	a, e
	ld	(#(_ball + 7)),a
;main.c:409: ball.direction = car1.direction;
	ld	a, (#_car1 + 0)
	ld	(#_ball),a
;main.c:410: }
	ret
;main.c:412: void main(){
;	---------------------------------
; Function main
; ---------------------------------
_main::
	add	sp, #-3
;main.c:415: set_bkg_data(0, 44, bkg_tiles);
	ld	de, #_bkg_tiles
	push	de
	ld	hl, #0x2c00
	push	hl
	call	_set_bkg_data
	add	sp, #4
;main.c:416: set_bkg_tiles(0, 0, 32, 21, map);
	ld	de, #_map
	push	de
	ld	hl, #0x1520
	push	hl
	xor	a, a
	rrca
	push	af
	call	_set_bkg_tiles
	add	sp, #6
;main.c:417: SHOW_BKG;
	ldh	a, (_LCDC_REG + 0)
	or	a, #0x01
	ldh	(_LCDC_REG + 0), a
;main.c:419: set_sprite_data(0,4, car_light);
	ld	de, #_car_light
	push	de
	ld	hl, #0x400
	push	hl
	call	_set_sprite_data
	add	sp, #4
;main.c:420: setupcar_light();
	call	_setupcar_light
;main.c:423: set_sprite_data(64, 4, ball_sprite);
	ld	de, #_ball_sprite
	push	de
	ld	hl, #0x440
	push	hl
	call	_set_sprite_data
	add	sp, #4
;main.c:424: setup_ball();
	call	_setup_ball
;main.c:425: movegamecharacter(&ball, ball.x, ball.y);
	ld	hl, #(_ball + 6)
	ld	b, (hl)
	ld	a, (#(_ball + 5) + 0)
	push	bc
	inc	sp
	push	af
	inc	sp
	ld	de, #_ball
	push	de
	call	_movegamecharacter
	add	sp, #4
;main.c:427: SHOW_SPRITES;
	ldh	a, (_LCDC_REG + 0)
	or	a, #0x02
	ldh	(_LCDC_REG + 0), a
;main.c:428: DISPLAY_ON;
	ldh	a, (_LCDC_REG + 0)
	or	a, #0x80
	ldh	(_LCDC_REG + 0), a
;main.c:430: UINT8 turn_count = 0;
	ldhl	sp,	#1
;main.c:431: UINT8 move_count = 0;  
	xor	a, a
	ld	(hl+), a
	ld	(hl), a
;main.c:433: while(1){
00133$:
;main.c:434: if (car1.vel == 0) {
	ld	hl, #_car1 + 7
	ld	e, (hl)
	ld	a, e
	or	a, a
	jr	NZ, 00104$
;main.c:435: turn_count = 2;
	ldhl	sp,	#1
	ld	(hl), #0x02
	jr	00105$
00104$:
;main.c:436: } else if (turn_count == 0) {
	ldhl	sp,	#1
	ld	a, (hl)
	or	a, a
	jr	NZ, 00105$
;main.c:437: turn_count = 22/abs(car1.vel);
	ld	a, e
	rlca
	sbc	a, a
	ld	d, a
	push	de
	call	_abs
	pop	hl
	push	de
	ld	de, #0x0016
	push	de
	call	__divsint
	add	sp, #4
	ldhl	sp,	#1
	ld	(hl), e
00105$:
;main.c:440: if (is_barrier(car1.x, car1.y + 16)) {
	ld	a, (#(_car1 + 6) + 0)
	add	a, #0x10
	ld	b, a
	ld	a, (#(_car1 + 5) + 0)
	push	bc
	inc	sp
	push	af
	inc	sp
	call	_is_barrier
	pop	hl
;main.c:448: if (is_goal(ball.x, ball.y)) {
	ld	hl, #(_ball + 6)
	ld	b, (hl)
	ld	a, (#(_ball + 5) + 0)
	push	bc
	inc	sp
	push	af
	inc	sp
	call	_is_goal
	pop	hl
	ld	a, e
	or	a, a
	jr	Z, 00109$
;main.c:449: printf("This is a goal\n");
	ld	de, #___str_2
	push	de
	call	_puts
	pop	hl
;main.c:450: reset_car();
	call	_reset_car
00109$:
;main.c:452: turn_count--;
	ldhl	sp,	#1
	dec	(hl)
;main.c:460: if (check_collision(&car1, &ball)) {
	ld	de, #_ball
	push	de
	ld	de, #_car1
	push	de
	call	_check_collision
	add	sp, #4
	ld	a, e
	or	a, a
	jr	Z, 00111$
;main.c:462: hit_ball();
	call	_hit_ball
00111$:
;main.c:469: if(joypad() & J_B){
	call	_joypad
;main.c:470: car1.acc = -1;
	ld	bc, #_car1 + 8
;main.c:469: if(joypad() & J_B){
	bit	5, e
	jr	Z, 00116$
;main.c:470: car1.acc = -1;
	ld	a, #0xff
	ld	(bc), a
	jr	00117$
00116$:
;main.c:471: } else if (joypad() & J_A){
	call	_joypad
	bit	4, e
	jr	Z, 00113$
;main.c:472: car1.acc = 1;
	ld	a, #0x01
	ld	(bc), a
	jr	00117$
00113$:
;main.c:474: car1.acc = 0;
	xor	a, a
	ld	(bc), a
00117$:
;main.c:476: if((joypad() & J_LEFT) AND turn_count == 0){
	call	_joypad
	bit	1, e
	jr	Z, 00122$
	ldhl	sp,	#1
	ld	a, (hl)
	or	a, a
	jr	NZ, 00122$
;main.c:477: if (car1.direction == 0) {
	ld	a, (#_car1 + 0)
	or	a, a
	jr	NZ, 00119$
;main.c:478: car1.direction = 15;
	ld	hl, #_car1
	ld	(hl), #0x0f
	jr	00120$
00119$:
;main.c:480: car1.direction -= 1;
	dec	a
	ld	(#_car1),a
00120$:
;main.c:482: load_car_sprite(car1.direction);
	ld	a, (#_car1 + 0)
	push	af
	inc	sp
	call	_load_car_sprite
	inc	sp
00122$:
;main.c:484: if((joypad() & J_RIGHT) AND turn_count == 0){
	call	_joypad
	ld	a, e
	rrca
	jr	NC, 00128$
	ldhl	sp,	#1
	ld	a, (hl)
	or	a, a
	jr	NZ, 00128$
;main.c:485: if (car1.direction == 15) {
	ld	a, (#_car1 + 0)
	ldhl	sp,#0
	ld	(hl), a
	ld	a, (hl)
	sub	a, #0x0f
	jr	NZ, 00125$
;main.c:486: car1.direction = 0;
	ld	hl, #_car1
	ld	(hl), #0x00
	jr	00126$
00125$:
;main.c:488: car1.direction += 1;
	ldhl	sp,	#0
	ld	a, (hl)
	inc	a
	ld	(#_car1),a
00126$:
;main.c:490: load_car_sprite(car1.direction);
	ld	a, (#_car1 + 0)
	push	af
	inc	sp
	call	_load_car_sprite
	inc	sp
00128$:
;main.c:492: if (move_count == 0) {
	ldhl	sp,	#2
	ld	a, (hl)
	or	a, a
	jr	NZ, 00131$
;main.c:493: move_car(&car1);
	ld	de, #_car1
	push	de
	call	_move_car
	pop	hl
;main.c:494: move_ball();
	call	_move_ball
;main.c:495: move_count = 2;
	ldhl	sp,	#2
	ld	(hl), #0x02
00131$:
;main.c:497: move_count--;
	ldhl	sp,	#2
	dec	(hl)
;main.c:498: performantdelay(1); 
	ld	a, #0x01
	push	af
	inc	sp
	call	_performantdelay
	inc	sp
	jp	00133$
;main.c:500: }
	add	sp, #3
	ret
___str_2:
	.ascii "This is a goal"
	.db 0x00
	.area _CODE
	.area _INITIALIZER
__xinit__barrier_size:
	.dw #0x0002
__xinit__goal_size:
	.dw #0x0003
__xinit__player_goals:
	.dw #0x0000
__xinit__enemy_goals:
	.dw #0x0000
__xinit__barriers:
	.dw #0x0000
	.dw #0x0000
__xinit__player_goal_square:
	.dw #0x0057
	.dw #0x0077
	.dw #0x0037
__xinit__enemy_goal_square:
	.dw #0x0076
	.dw #0x0015
	.dw #0x0054
__xinit__windowmap:
	.db #0x13	; 19
	.db #0x10	; 16
	.db #0x17	; 23
	.db #0x17	; 23
	.db #0x1a	; 26
__xinit__max_vel:
	.db #0x04	;  4
__xinit__spritesize:
	.db #0x08	; 8
	.area _CABS (ABS)
